
========================================================================

** ELF Header Information

    File Name: bin\ios_fifo_host.axf

    Machine class: ELFCLASS32 (32-bit)
    Data encoding: ELFDATA2LSB (Little endian)
    Header version: EV_CURRENT (Current version)
    Operating System ABI: none
    ABI Version: 0
    File Type: ET_EXEC (Executable) (2)
    Machine: EM_ARM (ARM)

    Image Entry point: 0x000000e9
    Flags: EF_ARM_HASENTRY + EF_ARM_ABI_FLOAT_HARD (0x05000402)

    ARM ELF revision: 5 (ABI version 2)

    Conforms to Hard float procedure-call standard

    Built with
    Component: ARM Compiler 5.06 update 4 (build 422) Tool: armasm [4d35cf]
    Component: ARM Compiler 5.06 update 4 (build 422) Tool: armlink [4d35d2]

    Header size: 52 bytes (0x34)
    Program header entry size: 32 bytes (0x20)
    Section header entry size: 40 bytes (0x28)

    Program header entries: 1
    Section header entries: 16

    Program header offset: 87708 (0x0001569c)
    Section header offset: 87740 (0x000156bc)

    Section header string table index: 15

========================================================================

** Program header #0 (PT_LOAD) [PF_X + PF_W + PF_R + PF_ARM_ENTRY]
    Size : 23528 bytes (17344 bytes in file)
    Virtual address: 0x00000000 (Alignment 8)


========================================================================

** Section #1 'FLASH' (SHT_PROGBITS) [SHF_ALLOC + SHF_EXECINSTR]
    Size   : 17120 bytes (alignment 4)
    Address: 0x00000000

    $d
    RESET
    __Vectors
        0x00000000:    10001908    ....    DCD    268441864
        0x00000004:    000000c1    ....    DCD    193
        0x00000008:    000000dd    ....    DCD    221
        0x0000000c:    000000df    ....    DCD    223
        0x00000010:    000000df    ....    DCD    223
        0x00000014:    000000df    ....    DCD    223
        0x00000018:    000000df    ....    DCD    223
        0x0000001c:    00000000    ....    DCD    0
        0x00000020:    00000000    ....    DCD    0
        0x00000024:    00000000    ....    DCD    0
        0x00000028:    00000000    ....    DCD    0
        0x0000002c:    000000e3    ....    DCD    227
        0x00000030:    000000e3    ....    DCD    227
        0x00000034:    00000000    ....    DCD    0
        0x00000038:    000000e3    ....    DCD    227
        0x0000003c:    000000e3    ....    DCD    227
        0x00000040:    000000e3    ....    DCD    227
        0x00000044:    000000e3    ....    DCD    227
        0x00000048:    000000e3    ....    DCD    227
        0x0000004c:    000000e3    ....    DCD    227
        0x00000050:    000000e3    ....    DCD    227
        0x00000054:    000000e3    ....    DCD    227
        0x00000058:    000000e3    ....    DCD    227
        0x0000005c:    000000e3    ....    DCD    227
        0x00000060:    000000e3    ....    DCD    227
        0x00000064:    000000e3    ....    DCD    227
        0x00000068:    000000e3    ....    DCD    227
        0x0000006c:    000000e3    ....    DCD    227
        0x00000070:    0000078f    ....    DCD    1935
        0x00000074:    000000e3    ....    DCD    227
        0x00000078:    000000e3    ....    DCD    227
        0x0000007c:    000000e3    ....    DCD    227
        0x00000080:    000000e3    ....    DCD    227
        0x00000084:    000000e3    ....    DCD    227
        0x00000088:    000000e3    ....    DCD    227
        0x0000008c:    000000e3    ....    DCD    227
        0x00000090:    000000e3    ....    DCD    227
        0x00000094:    000000e3    ....    DCD    227
        0x00000098:    000000e3    ....    DCD    227
        0x0000009c:    000000e3    ....    DCD    227
        0x000000a0:    000000e3    ....    DCD    227
        0x000000a4:    000000e3    ....    DCD    227
        0x000000a8:    000000e3    ....    DCD    227
        0x000000ac:    000000e3    ....    DCD    227
        0x000000b0:    000000e3    ....    DCD    227
        0x000000b4:    000000e3    ....    DCD    227
        0x000000b8:    000000e3    ....    DCD    227
        0x000000bc:    000000e3    ....    DCD    227
    $t
    $v0
    Reset_Handler
        0x000000c0:    f64e5088    N..P    MOV      r0,#0xed88
        0x000000c4:    f2ce0000    ....    MOVT     r0,#0xe000
        0x000000c8:    6801        .h      LDR      r1,[r0,#0]
        0x000000ca:    f4410170    A.p.    ORR      r1,r1,#0xf00000
        0x000000ce:    6001        .`      STR      r1,[r0,#0]
        0x000000d0:    f3bf8f4f    ..O.    DSB      
        0x000000d4:    f3bf8f6f    ..o.    ISB      
        0x000000d8:    4802        .H      LDR      r0,[pc,#8] ; [0xe4] = 0xe9
        0x000000da:    4700        .G      BX       r0
    am_nmi_isr
        0x000000dc:    e7fe        ..      B        am_nmi_isr ; 0xdc
    am_fault_isr
        0x000000de:    e7fe        ..      B        am_fault_isr ; 0xde
    am_memmanage_isr
        0x000000e0:    e7fe        ..      B        am_memmanage_isr ; 0xe0
    am_adc_isr
    am_brownout_isr
    am_clkgen_isr
    am_ctimer_isr
    am_debugmon_isr
    am_flash_isr
    am_iomaster0_isr
    am_iomaster1_isr
    am_iomaster2_isr
    am_iomaster3_isr
    am_iomaster4_isr
    am_iomaster5_isr
    am_ioslave_acc_isr
    am_ioslave_ios_isr
    am_pdm_isr
    am_pendsv_isr
    am_software0_isr
    am_software1_isr
    am_software2_isr
    am_software3_isr
    am_stimer_cmpr0_isr
    am_stimer_cmpr1_isr
    am_stimer_cmpr2_isr
    am_stimer_cmpr3_isr
    am_stimer_cmpr4_isr
    am_stimer_cmpr5_isr
    am_stimer_cmpr6_isr
    am_stimer_cmpr7_isr
    am_stimer_isr
    am_svcall_isr
    am_systick_isr
    am_uart0_isr
    am_uart1_isr
    am_uart_isr
    am_vcomp_isr
    am_watchdog_isr
        0x000000e2:    e7fe        ..      B        am_adc_isr ; 0xe2
    $d
        0x000000e4:    000000e9    ....    DCD    233
    $t
    !!!main
    __main
        0x000000e8:    f000f802    ....    BL       __scatterload ; 0xf0
        0x000000ec:    f000f83c    ..<.    BL       __rt_entry ; 0x168
    !!!scatter
    __scatterload
    __scatterload_rt2
    __scatterload_rt2_thumb_only
        0x000000f0:    a00a        ..      ADR      r0,{pc}+0x2c ; 0x11c
        0x000000f2:    e8900c00    ....    LDM      r0,{r10,r11}
        0x000000f6:    4482        .D      ADD      r10,r10,r0
        0x000000f8:    4483        .D      ADD      r11,r11,r0
        0x000000fa:    f1aa0701    ....    SUB      r7,r10,#1
    __scatterload_null
        0x000000fe:    45da        .E      CMP      r10,r11
        0x00000100:    d101        ..      BNE      0x106 ; __scatterload_null + 8
        0x00000102:    f000f831    ..1.    BL       __rt_entry ; 0x168
        0x00000106:    f2af0e09    ....    ADR      lr,{pc}-7 ; 0xff
        0x0000010a:    e8ba000f    ....    LDM      r10!,{r0-r3}
        0x0000010e:    f0130f01    ....    TST      r3,#1
        0x00000112:    bf18        ..      IT       NE
        0x00000114:    1afb        ..      SUBNE    r3,r7,r3
        0x00000116:    f0430301    C...    ORR      r3,r3,#1
        0x0000011a:    4718        .G      BX       r3
    $d
        0x0000011c:    000041a4    .A..    DCD    16804
        0x00000120:    000041c4    .A..    DCD    16836
    $t
    !!handler_copy
    __scatterload_copy
        0x00000124:    3a10        .:      SUBS     r2,r2,#0x10
        0x00000126:    bf24        $.      ITT      CS
        0x00000128:    c878        x.      LDMCS    r0!,{r3-r6}
        0x0000012a:    c178        x.      STMCS    r1!,{r3-r6}
        0x0000012c:    d8fa        ..      BHI      __scatterload_copy ; 0x124
        0x0000012e:    0752        R.      LSLS     r2,r2,#29
        0x00000130:    bf24        $.      ITT      CS
        0x00000132:    c830        0.      LDMCS    r0!,{r4,r5}
        0x00000134:    c130        0.      STMCS    r1!,{r4,r5}
        0x00000136:    bf44        D.      ITT      MI
        0x00000138:    6804        .h      LDRMI    r4,[r0,#0]
        0x0000013a:    600c        .`      STRMI    r4,[r1,#0]
        0x0000013c:    4770        pG      BX       lr
        0x0000013e:    0000        ..      MOVS     r0,r0
    !!handler_zi
    __scatterload_zeroinit
        0x00000140:    2300        .#      MOVS     r3,#0
        0x00000142:    2400        .$      MOVS     r4,#0
        0x00000144:    2500        .%      MOVS     r5,#0
        0x00000146:    2600        .&      MOVS     r6,#0
        0x00000148:    3a10        .:      SUBS     r2,r2,#0x10
        0x0000014a:    bf28        (.      IT       CS
        0x0000014c:    c178        x.      STMCS    r1!,{r3-r6}
        0x0000014e:    d8fb        ..      BHI      0x148 ; __scatterload_zeroinit + 8
        0x00000150:    0752        R.      LSLS     r2,r2,#29
        0x00000152:    bf28        (.      IT       CS
        0x00000154:    c130        0.      STMCS    r1!,{r4,r5}
        0x00000156:    bf48        H.      IT       MI
        0x00000158:    600b        .`      STRMI    r3,[r1,#0]
        0x0000015a:    4770        pG      BX       lr
    .ARM.Collect$$libinit$$00000000
    __rt_lib_init
        0x0000015c:    b51f        ..      PUSH     {r0-r4,lr}
    .ARM.Collect$$libinit$$00000001
    __rt_lib_init_fp_1
        0x0000015e:    f004f864    ..d.    BL       _fp_init ; 0x422a
    .ARM.Collect$$libinit$$00000004
    .ARM.Collect$$libinit$$0000000A
    .ARM.Collect$$libinit$$0000000C
    .ARM.Collect$$libinit$$0000000E
    .ARM.Collect$$libinit$$00000011
    .ARM.Collect$$libinit$$00000013
    .ARM.Collect$$libinit$$00000015
    .ARM.Collect$$libinit$$00000017
    .ARM.Collect$$libinit$$00000019
    .ARM.Collect$$libinit$$0000001B
    .ARM.Collect$$libinit$$0000001D
    .ARM.Collect$$libinit$$0000001F
    .ARM.Collect$$libinit$$00000021
    .ARM.Collect$$libinit$$00000023
    .ARM.Collect$$libinit$$00000025
    .ARM.Collect$$libinit$$0000002C
    .ARM.Collect$$libinit$$0000002E
    .ARM.Collect$$libinit$$00000030
    .ARM.Collect$$libinit$$00000032
    .ARM.Collect$$libinit$$00000033
    __rt_lib_init_alloca_1
    __rt_lib_init_argv_1
    __rt_lib_init_atexit_1
    __rt_lib_init_clock_1
    __rt_lib_init_cpp_1
    __rt_lib_init_exceptions_1
    __rt_lib_init_fp_trap_1
    __rt_lib_init_getenv_1
    __rt_lib_init_heap_1
    __rt_lib_init_lc_collate_1
    __rt_lib_init_lc_ctype_1
    __rt_lib_init_lc_monetary_1
    __rt_lib_init_lc_numeric_1
    __rt_lib_init_lc_time_1
    __rt_lib_init_preinit_1
    __rt_lib_init_rand_1
    __rt_lib_init_return
    __rt_lib_init_signal_1
    __rt_lib_init_stdio_1
    __rt_lib_init_user_alloc_1
        0x00000162:    bd1f        ..      POP      {r0-r4,pc}
    .ARM.Collect$$libshutdown$$00000000
    __rt_lib_shutdown
        0x00000164:    b510        ..      PUSH     {r4,lr}
    .ARM.Collect$$libshutdown$$00000002
    .ARM.Collect$$libshutdown$$00000004
    .ARM.Collect$$libshutdown$$00000007
    .ARM.Collect$$libshutdown$$0000000A
    .ARM.Collect$$libshutdown$$0000000C
    .ARM.Collect$$libshutdown$$0000000F
    .ARM.Collect$$libshutdown$$00000010
    __rt_lib_shutdown_cpp_1
    __rt_lib_shutdown_fp_trap_1
    __rt_lib_shutdown_heap_1
    __rt_lib_shutdown_return
    __rt_lib_shutdown_signal_1
    __rt_lib_shutdown_stdio_1
    __rt_lib_shutdown_user_alloc_1
        0x00000166:    bd10        ..      POP      {r4,pc}
    .ARM.Collect$$rtentry$$00000000
    .ARM.Collect$$rtentry$$00000002
    .ARM.Collect$$rtentry$$00000004
    __rt_entry
    __rt_entry_presh_1
    __rt_entry_sh
        0x00000168:    f000f83b    ..;.    BL       __user_setup_stackheap ; 0x1e2
        0x0000016c:    4611        .F      MOV      r1,r2
    .ARM.Collect$$rtentry$$00000009
    .ARM.Collect$$rtentry$$0000000A
    __rt_entry_li
    __rt_entry_postsh_1
        0x0000016e:    f7fffff5    ....    BL       __rt_lib_init ; 0x15c
    .ARM.Collect$$rtentry$$0000000C
    .ARM.Collect$$rtentry$$0000000D
    __rt_entry_main
    __rt_entry_postli_1
        0x00000172:    f003fd85    ....    BL       main ; 0x3c80
        0x00000176:    f000f859    ..Y.    BL       exit ; 0x22c
    .ARM.Collect$$rtexit$$00000000
    __rt_exit
        0x0000017a:    b403        ..      PUSH     {r0,r1}
    .ARM.Collect$$rtexit$$00000002
    .ARM.Collect$$rtexit$$00000003
    __rt_exit_ls
    __rt_exit_prels_1
        0x0000017c:    f7fffff2    ....    BL       __rt_lib_shutdown ; 0x164
    .ARM.Collect$$rtexit$$00000004
    __rt_exit_exit
        0x00000180:    bc03        ..      POP      {r0,r1}
        0x00000182:    f000f861    ..a.    BL       _sys_exit ; 0x248
        0x00000186:    0000        ..      MOVS     r0,r0
    .emb_text
    $v0
    am_hal_interrupt_master_enable
        0x00000188:    f3ef8010    ....    MRS      r0,PRIMASK
        0x0000018c:    b662        b.      CPSIE    i
        0x0000018e:    4770        pG      BX       lr
    am_hal_interrupt_master_disable
        0x00000190:    f3ef8010    ....    MRS      r0,PRIMASK
        0x00000194:    b672        r.      CPSID    i
        0x00000196:    4770        pG      BX       lr
    am_hal_interrupt_master_set
        0x00000198:    f3808810    ....    MSR      PRIMASK,r0
        0x0000019c:    4770        pG      BX       lr
        0x0000019e:    0000        ..      MOVS     r0,r0
    .emb_text
    $v0
    __asm___12_am_hal_iom_c_97762dd2__iom_workaround_loop
        0x000001a0:    b132        2.      CBZ      r2,0x1b0 ; __asm___12_am_hal_iom_c_97762dd2__iom_workaround_loop + 16
        0x000001a2:    4a07        .J      LDR      r2,[pc,#28] ; [0x1c0] = 0x40010084
        0x000001a4:    6813        .h      LDR      r3,[r2,#0]
        0x000001a6:    f4135380    ...S    ANDS     r3,r3,#0x1000
        0x000001aa:    d0fb        ..      BEQ      0x1a4 ; __asm___12_am_hal_iom_c_97762dd2__iom_workaround_loop + 4
        0x000001ac:    6008        .`      STR      r0,[r1,#0]
        0x000001ae:    4770        pG      BX       lr
        0x000001b0:    4a03        .J      LDR      r2,[pc,#12] ; [0x1c0] = 0x40010084
        0x000001b2:    6813        .h      LDR      r3,[r2,#0]
        0x000001b4:    f4135380    ...S    ANDS     r3,r3,#0x1000
        0x000001b8:    d1fb        ..      BNE      0x1b2 ; __asm___12_am_hal_iom_c_97762dd2__iom_workaround_loop + 18
        0x000001ba:    6008        .`      STR      r0,[r1,#0]
        0x000001bc:    4770        pG      BX       lr
        0x000001be:    bf00        ..      NOP      
    $d
        0x000001c0:    40010084    ...@    DCD    1073807492
    $t
    .text
    $v0
    __user_initial_stackheap
        0x000001c4:    4802        .H      LDR      r0,[pc,#8] ; [0x1d0] = 0x10000908
        0x000001c6:    4903        .I      LDR      r1,[pc,#12] ; [0x1d4] = 0x10001908
        0x000001c8:    4a01        .J      LDR      r2,[pc,#4] ; [0x1d0] = 0x10000908
        0x000001ca:    4b03        .K      LDR      r3,[pc,#12] ; [0x1d8] = 0x10000908
        0x000001cc:    4770        pG      BX       lr
    $d
        0x000001ce:    0000        ..      DCW    0
        0x000001d0:    10000908    ....    DCD    268437768
        0x000001d4:    10001908    ....    DCD    268441864
        0x000001d8:    10000908    ....    DCD    268437768
    $t
    .text
    __use_two_region_memory
        0x000001dc:    4770        pG      BX       lr
    __rt_heap_escrow$2region
        0x000001de:    4770        pG      BX       lr
    __rt_heap_expand$2region
        0x000001e0:    4770        pG      BX       lr
    .text
    __user_setup_stackheap
        0x000001e2:    4675        uF      MOV      r5,lr
        0x000001e4:    f000f82c    ..,.    BL       __user_libspace ; 0x240
        0x000001e8:    46ae        .F      MOV      lr,r5
        0x000001ea:    0005        ..      MOVS     r5,r0
        0x000001ec:    4669        iF      MOV      r1,sp
        0x000001ee:    4653        SF      MOV      r3,r10
        0x000001f0:    f0200007     ...    BIC      r0,r0,#7
        0x000001f4:    4685        .F      MOV      sp,r0
        0x000001f6:    b018        ..      ADD      sp,sp,#0x60
        0x000001f8:    b520         .      PUSH     {r5,lr}
        0x000001fa:    f7ffffe3    ....    BL       __user_initial_stackheap ; 0x1c4
        0x000001fe:    e8bd4020    .. @    POP      {r5,lr}
        0x00000202:    f04f0600    O...    MOV      r6,#0
        0x00000206:    f04f0700    O...    MOV      r7,#0
        0x0000020a:    f04f0800    O...    MOV      r8,#0
        0x0000020e:    f04f0b00    O...    MOV      r11,#0
        0x00000212:    f0210107    !...    BIC      r1,r1,#7
        0x00000216:    46ac        .F      MOV      r12,r5
        0x00000218:    e8ac09c0    ....    STM      r12!,{r6-r8,r11}
        0x0000021c:    e8ac09c0    ....    STM      r12!,{r6-r8,r11}
        0x00000220:    e8ac09c0    ....    STM      r12!,{r6-r8,r11}
        0x00000224:    e8ac09c0    ....    STM      r12!,{r6-r8,r11}
        0x00000228:    468d        .F      MOV      sp,r1
        0x0000022a:    4770        pG      BX       lr
    .text
    exit
        0x0000022c:    b510        ..      PUSH     {r4,lr}
        0x0000022e:    4604        .F      MOV      r4,r0
        0x00000230:    f3af8000    ....    NOP.W    
        0x00000234:    4620         F      MOV      r0,r4
        0x00000236:    e8bd4010    ...@    POP      {r4,lr}
        0x0000023a:    f7ffbf9e    ....    B.W      __rt_exit ; 0x17a
        0x0000023e:    0000        ..      MOVS     r0,r0
    .text
    __user_libspace
    __user_perproc_libspace
    __user_perthread_libspace
        0x00000240:    4800        .H      LDR      r0,[pc,#0] ; [0x244] = 0x100008a4
        0x00000242:    4770        pG      BX       lr
    $d
        0x00000244:    100008a4    ....    DCD    268437668
    $t
    .text
    _sys_exit
        0x00000248:    4901        .I      LDR      r1,[pc,#4] ; [0x250] = 0x20026
        0x0000024a:    2018        .       MOVS     r0,#0x18
        0x0000024c:    beab        ..      BKPT     #0xab
        0x0000024e:    e7fe        ..      B        0x24e ; _sys_exit + 6
    $d
        0x00000250:    00020026    &...    DCD    131110
    $t
    .text
    __I$use$semihosting
    __use_no_semihosting_swi
        0x00000254:    4770        pG      BX       lr
    .text
    __semihosting_library_function
        0x00000256:    0000        ..      MOVS     r0,r0
    i.am_bsp_debug_printf_enable
    am_bsp_debug_printf_enable
        0x00000258:    4816        .H      LDR      r0,[pc,#88] ; [0x2b4] = 0x1000002c
        0x0000025a:    6800        .h      LDR      r0,[r0,#0]
        0x0000025c:    f0100f01    ....    TST      r0,#1
        0x00000260:    bf18        ..      IT       NE
        0x00000262:    4770        pG      BXNE     lr
        0x00000264:    b500        ..      PUSH     {lr}
        0x00000266:    b087        ..      SUB      sp,sp,#0x1c
        0x00000268:    4914        .I      LDR      r1,[pc,#80] ; [0x2bc] = 0xe0000e80
        0x0000026a:    4813        .H      LDR      r0,[pc,#76] ; [0x2b8] = 0x150511
        0x0000026c:    6008        .`      STR      r0,[r1,#0]
        0x0000026e:    4814        .H      LDR      r0,[pc,#80] ; [0x2c0] = 0xf4240
        0x00000270:    9000        ..      STR      r0,[sp,#0]
        0x00000272:    4668        hF      MOV      r0,sp
        0x00000274:    f002fd7c    ..|.    BL       am_hal_tpiu_enable ; 0x2d70
        0x00000278:    f3ef8010    ....    MRS      r0,PRIMASK
        0x0000027c:    9005        ..      STR      r0,[sp,#0x14]
        0x0000027e:    b672        r.      CPSID    i
        0x00000280:    4810        .H      LDR      r0,[pc,#64] ; [0x2c4] = 0x40010000
        0x00000282:    2173        s!      MOVS     r1,#0x73
        0x00000284:    6601        .f      STR      r1,[r0,#0x60]
        0x00000286:    6d41        Am      LDR      r1,[r0,#0x54]
        0x00000288:    f0210170    !.p.    BIC      r1,r1,#0x70
        0x0000028c:    6541        Ae      STR      r1,[r0,#0x54]
        0x0000028e:    6a81        .j      LDR      r1,[r0,#0x28]
        0x00000290:    f421417f    !..A    BIC      r1,r1,#0xff00
        0x00000294:    f4415180    A..Q    ORR      r1,r1,#0x1000
        0x00000298:    6281        .b      STR      r1,[r0,#0x28]
        0x0000029a:    f8d01108    ....    LDR      r1,[r0,#0x108]
        0x0000029e:    f421417f    !..A    BIC      r1,r1,#0xff00
        0x000002a2:    f8c01108    ....    STR      r1,[r0,#0x108]
        0x000002a6:    2100        .!      MOVS     r1,#0
        0x000002a8:    6601        .f      STR      r1,[r0,#0x60]
        0x000002aa:    9805        ..      LDR      r0,[sp,#0x14]
        0x000002ac:    f3808810    ....    MSR      PRIMASK,r0
        0x000002b0:    b007        ..      ADD      sp,sp,#0x1c
        0x000002b2:    bd00        ..      POP      {pc}
    $d
        0x000002b4:    1000002c    ,...    DCD    268435500
        0x000002b8:    00150511    ....    DCD    1377553
        0x000002bc:    e0000e80    ....    DCD    3758100096
        0x000002c0:    000f4240    @B..    DCD    1000000
        0x000002c4:    40010000    ...@    DCD    1073807360
    $t
    i.am_bsp_iom_enable
    am_bsp_iom_enable
        0x000002c8:    b5f8        ..      PUSH     {r3-r7,lr}
        0x000002ca:    4604        .F      MOV      r4,r0
        0x000002cc:    f000ff10    ....    BL       am_hal_iom_enable ; 0x10f0
        0x000002d0:    4831        1H      LDR      r0,[pc,#196] ; [0x398] = 0x10000030
        0x000002d2:    4a32        2J      LDR      r2,[pc,#200] ; [0x39c] = 0xdeadbeef
        0x000002d4:    f8501034    P.4.    LDR      r1,[r0,r4,LSL #3]
        0x000002d8:    4291        .B      CMP      r1,r2
        0x000002da:    bf08        ..      IT       EQ
        0x000002dc:    bdf8        ..      POPEQ    {r3-r7,pc}
        0x000002de:    0322        ".      LSLS     r2,r4,#12
        0x000002e0:    f10242a0    ...B    ADD      r2,r2,#0x50000000
        0x000002e4:    f5024280    ...B    ADD      r2,r2,#0x4000
        0x000002e8:    f8d2211c    ...!    LDR      r2,[r2,#0x11c]
        0x000002ec:    f0120f01    ....    TST      r2,#1
        0x000002f0:    bf08        ..      IT       EQ
        0x000002f2:    bdf8        ..      POPEQ    {r3-r7,pc}
        0x000002f4:    2932        2)      CMP      r1,#0x32
        0x000002f6:    bf28        (.      IT       CS
        0x000002f8:    bdf8        ..      POPCS    {r3-r7,pc}
        0x000002fa:    f3ef8210    ....    MRS      r2,PRIMASK
        0x000002fe:    b672        r.      CPSID    i
        0x00000300:    4b27        'K      LDR      r3,[pc,#156] ; [0x3a0] = 0x40010000
        0x00000302:    9200        ..      STR      r2,[sp,#0]
        0x00000304:    2273        s"      MOVS     r2,#0x73
        0x00000306:    661a        .f      STR      r2,[r3,#0x60]
        0x00000308:    eb0002c4    ....    ADD      r2,r0,r4,LSL #3
        0x0000030c:    f8b2c004    ....    LDRH     r12,[r2,#4]
        0x00000310:    f3cc2502    ...%    UBFX     r5,r12,#8,#3
        0x00000314:    ea4f7c41    O.A|    LSL      r12,r1,#29
        0x00000318:    ea4f6cdc    O..l    LSR      r12,r12,#27
        0x0000031c:    fa05f60c    ....    LSL      r6,r5,r12
        0x00000320:    257c        |%      MOVS     r5,#0x7c
        0x00000322:    ea050151    ..Q.    AND      r1,r5,r1,LSR #1
        0x00000326:    4419        .D      ADD      r1,r1,r3
        0x00000328:    6c0d        .l      LDR      r5,[r1,#0x40]
        0x0000032a:    2707        .'      MOVS     r7,#7
        0x0000032c:    fa07fc0c    ....    LSL      r12,r7,r12
        0x00000330:    ea250c0c    %...    BIC      r12,r5,r12
        0x00000334:    ea460c0c    F...    ORR      r12,r6,r12
        0x00000338:    f8c1c040    ..@.    STR      r12,[r1,#0x40]
        0x0000033c:    f8101034    ..4.    LDRB     r1,[r0,r4,LSL #3]
        0x00000340:    f892c004    ....    LDRB     r12,[r2,#4]
        0x00000344:    078d        ..      LSLS     r5,r1,#30
        0x00000346:    f00101fc    ....    AND      r1,r1,#0xfc
        0x0000034a:    4419        .D      ADD      r1,r1,r3
        0x0000034c:    0eed        ..      LSRS     r5,r5,#27
        0x0000034e:    680f        .h      LDR      r7,[r1,#0]
        0x00000350:    fa0cf605    ....    LSL      r6,r12,r5
        0x00000354:    f04f0cff    O...    MOV      r12,#0xff
        0x00000358:    fa0cf505    ....    LSL      r5,r12,r5
        0x0000035c:    ea270505    '...    BIC      r5,r7,r5
        0x00000360:    4335        5C      ORRS     r5,r5,r6
        0x00000362:    600d        .`      STR      r5,[r1,#0]
        0x00000364:    6851        Qh      LDR      r1,[r2,#4]
        0x00000366:    f3c14207    ...B    UBFX     r2,r1,#16,#8
        0x0000036a:    f8101034    ..4.    LDRB     r1,[r0,r4,LSL #3]
        0x0000036e:    0788        ..      LSLS     r0,r1,#30
        0x00000370:    f00101fc    ....    AND      r1,r1,#0xfc
        0x00000374:    4419        .D      ADD      r1,r1,r3
        0x00000376:    0ec0        ..      LSRS     r0,r0,#27
        0x00000378:    f8d140e0    ...@    LDR      r4,[r1,#0xe0]
        0x0000037c:    4082        .@      LSLS     r2,r2,r0
        0x0000037e:    fa0cf000    ....    LSL      r0,r12,r0
        0x00000382:    ea240000    $...    BIC      r0,r4,r0
        0x00000386:    4310        .C      ORRS     r0,r0,r2
        0x00000388:    f8c100e0    ....    STR      r0,[r1,#0xe0]
        0x0000038c:    2000        .       MOVS     r0,#0
        0x0000038e:    6618        .f      STR      r0,[r3,#0x60]
        0x00000390:    9800        ..      LDR      r0,[sp,#0]
        0x00000392:    f3808810    ....    MSR      PRIMASK,r0
        0x00000396:    bdf8        ..      POP      {r3-r7,pc}
    $d
        0x00000398:    10000030    0...    DCD    268435504
        0x0000039c:    deadbeef    ....    DCD    3735928559
        0x000003a0:    40010000    ...@    DCD    1073807360
    $t
    i.am_bsp_iom_spi_pins_enable
    am_bsp_iom_spi_pins_enable
        0x000003a4:    2200        ."      MOVS     r2,#0
        0x000003a6:    2373        s#      MOVS     r3,#0x73
        0x000003a8:    49ee        .I      LDR      r1,[pc,#952] ; [0x764] = 0x40010000
        0x000003aa:    b081        ..      SUB      sp,sp,#4
        0x000003ac:    2806        .(      CMP      r0,#6
        0x000003ae:    f08081d7    ....    BCS.W    0x760 ; am_bsp_iom_spi_pins_enable + 956
        0x000003b2:    e8dff000    ....    TBB      [pc,r0]
    $d
        0x000003b6:    5203        .R      DCW    20995
        0x000003b8:    ecedef9f    ....    DCD    3975016351
    $t
        0x000003bc:    f3ef8010    ....    MRS      r0,PRIMASK
        0x000003c0:    9000        ..      STR      r0,[sp,#0]
        0x000003c2:    660b        .f      STR      r3,[r1,#0x60]
        0x000003c4:    b672        r.      CPSID    i
        0x000003c6:    6c08        .l      LDR      r0,[r1,#0x40]
        0x000003c8:    f42000e0     ...    BIC      r0,r0,#0x700000
        0x000003cc:    f4401000    @...    ORR      r0,r0,#0x200000
        0x000003d0:    6408        .d      STR      r0,[r1,#0x40]
        0x000003d2:    6848        Hh      LDR      r0,[r1,#4]
        0x000003d4:    f420407f     ..@    BIC      r0,r0,#0xff00
        0x000003d8:    f4406060    @.``    ORR      r0,r0,#0xe00
        0x000003dc:    6048        H`      STR      r0,[r1,#4]
        0x000003de:    f8d100e4    ....    LDR      r0,[r1,#0xe4]
        0x000003e2:    f420407f     ..@    BIC      r0,r0,#0xff00
        0x000003e6:    f8c100e4    ....    STR      r0,[r1,#0xe4]
        0x000003ea:    660a        .f      STR      r2,[r1,#0x60]
        0x000003ec:    9800        ..      LDR      r0,[sp,#0]
        0x000003ee:    f3808810    ....    MSR      PRIMASK,r0
        0x000003f2:    f3ef8010    ....    MRS      r0,PRIMASK
        0x000003f6:    9000        ..      STR      r0,[sp,#0]
        0x000003f8:    660b        .f      STR      r3,[r1,#0x60]
        0x000003fa:    b672        r.      CPSID    i
        0x000003fc:    6c08        .l      LDR      r0,[r1,#0x40]
        0x000003fe:    f02060e0     ..`    BIC      r0,r0,#0x7000000
        0x00000402:    6408        .d      STR      r0,[r1,#0x40]
        0x00000404:    6848        Hh      LDR      r0,[r1,#4]
        0x00000406:    f420007f     ...    BIC      r0,r0,#0xff0000
        0x0000040a:    f4402020    @.      ORR      r0,r0,#0xa0000
        0x0000040e:    6048        H`      STR      r0,[r1,#4]
        0x00000410:    f8d100e4    ....    LDR      r0,[r1,#0xe4]
        0x00000414:    f420007f     ...    BIC      r0,r0,#0xff0000
        0x00000418:    f8c100e4    ....    STR      r0,[r1,#0xe4]
        0x0000041c:    660a        .f      STR      r2,[r1,#0x60]
        0x0000041e:    9800        ..      LDR      r0,[sp,#0]
        0x00000420:    f3808810    ....    MSR      PRIMASK,r0
        0x00000424:    f3ef8010    ....    MRS      r0,PRIMASK
        0x00000428:    9000        ..      STR      r0,[sp,#0]
        0x0000042a:    660b        .f      STR      r3,[r1,#0x60]
        0x0000042c:    b672        r.      CPSID    i
        0x0000042e:    6c08        .l      LDR      r0,[r1,#0x40]
        0x00000430:    f02040e0     ..@    BIC      r0,r0,#0x70000000
        0x00000434:    6408        .d      STR      r0,[r1,#0x40]
        0x00000436:    6848        Hh      LDR      r0,[r1,#4]
        0x00000438:    f020407f     ..@    BIC      r0,r0,#0xff000000
        0x0000043c:    f0406000    @..`    ORR      r0,r0,#0x8000000
        0x00000440:    6048        H`      STR      r0,[r1,#4]
        0x00000442:    f8d100e4    ....    LDR      r0,[r1,#0xe4]
        0x00000446:    f020407f     ..@    BIC      r0,r0,#0xff000000
        0x0000044a:    f8c100e4    ....    STR      r0,[r1,#0xe4]
        0x0000044e:    660a        .f      STR      r2,[r1,#0x60]
        0x00000450:    9800        ..      LDR      r0,[sp,#0]
        0x00000452:    f3808810    ....    MSR      PRIMASK,r0
        0x00000456:    b001        ..      ADD      sp,sp,#4
        0x00000458:    4770        pG      BX       lr
        0x0000045a:    f3ef8010    ....    MRS      r0,PRIMASK
        0x0000045e:    9000        ..      STR      r0,[sp,#0]
        0x00000460:    660b        .f      STR      r3,[r1,#0x60]
        0x00000462:    b672        r.      CPSID    i
        0x00000464:    6c48        Hl      LDR      r0,[r1,#0x44]
        0x00000466:    f0200007     ...    BIC      r0,r0,#7
        0x0000046a:    6448        Hd      STR      r0,[r1,#0x44]
        0x0000046c:    6888        .h      LDR      r0,[r1,#8]
        0x0000046e:    f02000ff     ...    BIC      r0,r0,#0xff
        0x00000472:    f040000e    @...    ORR      r0,r0,#0xe
        0x00000476:    6088        .`      STR      r0,[r1,#8]
        0x00000478:    f8d100e8    ....    LDR      r0,[r1,#0xe8]
        0x0000047c:    f02000ff     ...    BIC      r0,r0,#0xff
        0x00000480:    f8c100e8    ....    STR      r0,[r1,#0xe8]
        0x00000484:    660a        .f      STR      r2,[r1,#0x60]
        0x00000486:    9800        ..      LDR      r0,[sp,#0]
        0x00000488:    f3808810    ....    MSR      PRIMASK,r0
        0x0000048c:    f3ef8010    ....    MRS      r0,PRIMASK
        0x00000490:    9000        ..      STR      r0,[sp,#0]
        0x00000492:    660b        .f      STR      r3,[r1,#0x60]
        0x00000494:    b672        r.      CPSID    i
        0x00000496:    6c48        Hl      LDR      r0,[r1,#0x44]
        0x00000498:    f0200070     .p.    BIC      r0,r0,#0x70
        0x0000049c:    6448        Hd      STR      r0,[r1,#0x44]
        0x0000049e:    6888        .h      LDR      r0,[r1,#8]
        0x000004a0:    f420407f     ..@    BIC      r0,r0,#0xff00
        0x000004a4:    f4406020    @. `    ORR      r0,r0,#0xa00
        0x000004a8:    6088        .`      STR      r0,[r1,#8]
        0x000004aa:    f8d100e8    ....    LDR      r0,[r1,#0xe8]
        0x000004ae:    f420407f     ..@    BIC      r0,r0,#0xff00
        0x000004b2:    f8c100e8    ....    STR      r0,[r1,#0xe8]
        0x000004b6:    660a        .f      STR      r2,[r1,#0x60]
        0x000004b8:    9800        ..      LDR      r0,[sp,#0]
        0x000004ba:    f3808810    ....    MSR      PRIMASK,r0
        0x000004be:    f3ef8010    ....    MRS      r0,PRIMASK
        0x000004c2:    9000        ..      STR      r0,[sp,#0]
        0x000004c4:    660b        .f      STR      r3,[r1,#0x60]
        0x000004c6:    b672        r.      CPSID    i
        0x000004c8:    6c48        Hl      LDR      r0,[r1,#0x44]
        0x000004ca:    f42060e0     ..`    BIC      r0,r0,#0x700
        0x000004ce:    6448        Hd      STR      r0,[r1,#0x44]
        0x000004d0:    6888        .h      LDR      r0,[r1,#8]
        0x000004d2:    f420007f     ...    BIC      r0,r0,#0xff0000
        0x000004d6:    f4402000    @..     ORR      r0,r0,#0x80000
        0x000004da:    6088        .`      STR      r0,[r1,#8]
        0x000004dc:    f8d100e8    ....    LDR      r0,[r1,#0xe8]
        0x000004e0:    f420007f     ...    BIC      r0,r0,#0xff0000
        0x000004e4:    f8c100e8    ....    STR      r0,[r1,#0xe8]
        0x000004e8:    660a        .f      STR      r2,[r1,#0x60]
        0x000004ea:    9800        ..      LDR      r0,[sp,#0]
        0x000004ec:    f3808810    ....    MSR      PRIMASK,r0
        0x000004f0:    b001        ..      ADD      sp,sp,#4
        0x000004f2:    4770        pG      BX       lr
        0x000004f4:    f3ef8010    ....    MRS      r0,PRIMASK
        0x000004f8:    9000        ..      STR      r0,[sp,#0]
        0x000004fa:    660b        .f      STR      r3,[r1,#0x60]
        0x000004fc:    b672        r.      CPSID    i
        0x000004fe:    6cc8        .l      LDR      r0,[r1,#0x4c]
        0x00000500:    f42040e0     ..@    BIC      r0,r0,#0x7000
        0x00000504:    64c8        .d      STR      r0,[r1,#0x4c]
        0x00000506:    6988        .i      LDR      r0,[r1,#0x18]
        0x00000508:    f020407f     ..@    BIC      r0,r0,#0xff000000
        0x0000050c:    f0405038    @.8P    ORR      r0,r0,#0x2e000000
        0x00000510:    6188        .a      STR      r0,[r1,#0x18]
        0x00000512:    f8d100f8    ....    LDR      r0,[r1,#0xf8]
        0x00000516:    f020407f     ..@    BIC      r0,r0,#0xff000000
        0x0000051a:    f8c100f8    ....    STR      r0,[r1,#0xf8]
        0x0000051e:    660a        .f      STR      r2,[r1,#0x60]
        0x00000520:    9800        ..      LDR      r0,[sp,#0]
        0x00000522:    f3808810    ....    MSR      PRIMASK,r0
        0x00000526:    f3ef8010    ....    MRS      r0,PRIMASK
        0x0000052a:    9000        ..      STR      r0,[sp,#0]
        0x0000052c:    660b        .f      STR      r3,[r1,#0x60]
        0x0000052e:    b672        r.      CPSID    i
        0x00000530:    6cc8        .l      LDR      r0,[r1,#0x4c]
        0x00000532:    f0200070     .p.    BIC      r0,r0,#0x70
        0x00000536:    64c8        .d      STR      r0,[r1,#0x4c]
        0x00000538:    6988        .i      LDR      r0,[r1,#0x18]
        0x0000053a:    f420407f     ..@    BIC      r0,r0,#0xff00
        0x0000053e:    f4405028    @.(P    ORR      r0,r0,#0x2a00
        0x00000542:    6188        .a      STR      r0,[r1,#0x18]
        0x00000544:    f8d100f8    ....    LDR      r0,[r1,#0xf8]
        0x00000548:    f420407f     ..@    BIC      r0,r0,#0xff00
        0x0000054c:    f8c100f8    ....    STR      r0,[r1,#0xf8]
        0x00000550:    660a        .f      STR      r2,[r1,#0x60]
        0x00000552:    9800        ..      LDR      r0,[sp,#0]
        0x00000554:    f3808810    ....    MSR      PRIMASK,r0
        0x00000558:    f3ef8010    ....    MRS      r0,PRIMASK
        0x0000055c:    9000        ..      STR      r0,[sp,#0]
        0x0000055e:    660b        .f      STR      r3,[r1,#0x60]
        0x00000560:    b672        r.      CPSID    i
        0x00000562:    6cc8        .l      LDR      r0,[r1,#0x4c]
        0x00000564:    f42020e0     ..     BIC      r0,r0,#0x70000
        0x00000568:    64c8        .d      STR      r0,[r1,#0x4c]
        0x0000056a:    69c8        .i      LDR      r0,[r1,#0x1c]
        0x0000056c:    f02000ff     ...    BIC      r0,r0,#0xff
        0x00000570:    f0400028    @.(.    ORR      r0,r0,#0x28
        0x00000574:    61c8        .a      STR      r0,[r1,#0x1c]
        0x00000576:    f8d100fc    ....    LDR      r0,[r1,#0xfc]
        0x0000057a:    f02000ff     ...    BIC      r0,r0,#0xff
        0x0000057e:    f8c100fc    ....    STR      r0,[r1,#0xfc]
        0x00000582:    660a        .f      STR      r2,[r1,#0x60]
        0x00000584:    9800        ..      LDR      r0,[sp,#0]
        0x00000586:    f3808810    ....    MSR      PRIMASK,r0
        0x0000058a:    b001        ..      ADD      sp,sp,#4
        0x0000058c:    4770        pG      BX       lr
        0x0000058e:    e09b        ..      B        0x6c8 ; am_bsp_iom_spi_pins_enable + 804
        0x00000590:    e04c        L.      B        0x62c ; am_bsp_iom_spi_pins_enable + 648
        0x00000592:    e7ff        ..      B        0x594 ; am_bsp_iom_spi_pins_enable + 496
        0x00000594:    f3ef8010    ....    MRS      r0,PRIMASK
        0x00000598:    9000        ..      STR      r0,[sp,#0]
        0x0000059a:    660b        .f      STR      r3,[r1,#0x60]
        0x0000059c:    b672        r.      CPSID    i
        0x0000059e:    6d48        Hm      LDR      r0,[r1,#0x54]
        0x000005a0:    f42060e0     ..`    BIC      r0,r0,#0x700
        0x000005a4:    6548        He      STR      r0,[r1,#0x54]
        0x000005a6:    6a88        .j      LDR      r0,[r1,#0x28]
        0x000005a8:    f420007f     ...    BIC      r0,r0,#0xff0000
        0x000005ac:    f4401028    @.(.    ORR      r0,r0,#0x2a0000
        0x000005b0:    6288        .b      STR      r0,[r1,#0x28]
        0x000005b2:    f8d10108    ....    LDR      r0,[r1,#0x108]
        0x000005b6:    f420007f     ...    BIC      r0,r0,#0xff0000
        0x000005ba:    f8c10108    ....    STR      r0,[r1,#0x108]
        0x000005be:    660a        .f      STR      r2,[r1,#0x60]
        0x000005c0:    9800        ..      LDR      r0,[sp,#0]
        0x000005c2:    f3808810    ....    MSR      PRIMASK,r0
        0x000005c6:    f3ef8010    ....    MRS      r0,PRIMASK
        0x000005ca:    9000        ..      STR      r0,[sp,#0]
        0x000005cc:    660b        .f      STR      r3,[r1,#0x60]
        0x000005ce:    b672        r.      CPSID    i
        0x000005d0:    6d48        Hm      LDR      r0,[r1,#0x54]
        0x000005d2:    f42040e0     ..@    BIC      r0,r0,#0x7000
        0x000005d6:    6548        He      STR      r0,[r1,#0x54]
        0x000005d8:    6a88        .j      LDR      r0,[r1,#0x28]
        0x000005da:    f020407f     ..@    BIC      r0,r0,#0xff000000
        0x000005de:    f0405028    @.(P    ORR      r0,r0,#0x2a000000
        0x000005e2:    6288        .b      STR      r0,[r1,#0x28]
        0x000005e4:    f8d10108    ....    LDR      r0,[r1,#0x108]
        0x000005e8:    f020407f     ..@    BIC      r0,r0,#0xff000000
        0x000005ec:    f8c10108    ....    STR      r0,[r1,#0x108]
        0x000005f0:    660a        .f      STR      r2,[r1,#0x60]
        0x000005f2:    9800        ..      LDR      r0,[sp,#0]
        0x000005f4:    f3808810    ....    MSR      PRIMASK,r0
        0x000005f8:    f3ef8010    ....    MRS      r0,PRIMASK
        0x000005fc:    9000        ..      STR      r0,[sp,#0]
        0x000005fe:    660b        .f      STR      r3,[r1,#0x60]
        0x00000600:    b672        r.      CPSID    i
        0x00000602:    6d08        .m      LDR      r0,[r1,#0x50]
        0x00000604:    f02060e0     ..`    BIC      r0,r0,#0x7000000
        0x00000608:    6508        .e      STR      r0,[r1,#0x50]
        0x0000060a:    6a48        Hj      LDR      r0,[r1,#0x24]
        0x0000060c:    f420007f     ...    BIC      r0,r0,#0xff0000
        0x00000610:    f4401020    @. .    ORR      r0,r0,#0x280000
        0x00000614:    6248        Hb      STR      r0,[r1,#0x24]
        0x00000616:    f8d10104    ....    LDR      r0,[r1,#0x104]
        0x0000061a:    f420007f     ...    BIC      r0,r0,#0xff0000
        0x0000061e:    f8c10104    ....    STR      r0,[r1,#0x104]
        0x00000622:    660a        .f      STR      r2,[r1,#0x60]
        0x00000624:    9800        ..      LDR      r0,[sp,#0]
        0x00000626:    f3808810    ....    MSR      PRIMASK,r0
        0x0000062a:    e7ae        ..      B        0x58a ; am_bsp_iom_spi_pins_enable + 486
        0x0000062c:    f3ef8010    ....    MRS      r0,PRIMASK
        0x00000630:    9000        ..      STR      r0,[sp,#0]
        0x00000632:    660b        .f      STR      r3,[r1,#0x60]
        0x00000634:    b672        r.      CPSID    i
        0x00000636:    6d08        .m      LDR      r0,[r1,#0x50]
        0x00000638:    f02040e0     ..@    BIC      r0,r0,#0x70000000
        0x0000063c:    f0405000    @..P    ORR      r0,r0,#0x20000000
        0x00000640:    6508        .e      STR      r0,[r1,#0x50]
        0x00000642:    6a48        Hj      LDR      r0,[r1,#0x24]
        0x00000644:    f020407f     ..@    BIC      r0,r0,#0xff000000
        0x00000648:    f0405028    @.(P    ORR      r0,r0,#0x2a000000
        0x0000064c:    6248        Hb      STR      r0,[r1,#0x24]
        0x0000064e:    f8d10104    ....    LDR      r0,[r1,#0x104]
        0x00000652:    f020407f     ..@    BIC      r0,r0,#0xff000000
        0x00000656:    f8c10104    ....    STR      r0,[r1,#0x104]
        0x0000065a:    660a        .f      STR      r2,[r1,#0x60]
        0x0000065c:    9800        ..      LDR      r0,[sp,#0]
        0x0000065e:    f3808810    ....    MSR      PRIMASK,r0
        0x00000662:    f3ef8010    ....    MRS      r0,PRIMASK
        0x00000666:    9000        ..      STR      r0,[sp,#0]
        0x00000668:    660b        .f      STR      r3,[r1,#0x60]
        0x0000066a:    b672        r.      CPSID    i
        0x0000066c:    6d48        Hm      LDR      r0,[r1,#0x54]
        0x0000066e:    f0200007     ...    BIC      r0,r0,#7
        0x00000672:    6548        He      STR      r0,[r1,#0x54]
        0x00000674:    6a88        .j      LDR      r0,[r1,#0x28]
        0x00000676:    f02000ff     ...    BIC      r0,r0,#0xff
        0x0000067a:    f040002a    @.*.    ORR      r0,r0,#0x2a
        0x0000067e:    6288        .b      STR      r0,[r1,#0x28]
        0x00000680:    f8d10108    ....    LDR      r0,[r1,#0x108]
        0x00000684:    f02000ff     ...    BIC      r0,r0,#0xff
        0x00000688:    f8c10108    ....    STR      r0,[r1,#0x108]
        0x0000068c:    660a        .f      STR      r2,[r1,#0x60]
        0x0000068e:    9800        ..      LDR      r0,[sp,#0]
        0x00000690:    f3808810    ....    MSR      PRIMASK,r0
        0x00000694:    f3ef8010    ....    MRS      r0,PRIMASK
        0x00000698:    9000        ..      STR      r0,[sp,#0]
        0x0000069a:    660b        .f      STR      r3,[r1,#0x60]
        0x0000069c:    b672        r.      CPSID    i
        0x0000069e:    6d48        Hm      LDR      r0,[r1,#0x54]
        0x000006a0:    f42020e0     ..     BIC      r0,r0,#0x70000
        0x000006a4:    6548        He      STR      r0,[r1,#0x54]
        0x000006a6:    6ac8        .j      LDR      r0,[r1,#0x2c]
        0x000006a8:    f02000ff     ...    BIC      r0,r0,#0xff
        0x000006ac:    f0400028    @.(.    ORR      r0,r0,#0x28
        0x000006b0:    62c8        .b      STR      r0,[r1,#0x2c]
        0x000006b2:    f8d1010c    ....    LDR      r0,[r1,#0x10c]
        0x000006b6:    f02000ff     ...    BIC      r0,r0,#0xff
        0x000006ba:    f8c1010c    ....    STR      r0,[r1,#0x10c]
        0x000006be:    660a        .f      STR      r2,[r1,#0x60]
        0x000006c0:    9800        ..      LDR      r0,[sp,#0]
        0x000006c2:    f3808810    ....    MSR      PRIMASK,r0
        0x000006c6:    e760        `.      B        0x58a ; am_bsp_iom_spi_pins_enable + 486
        0x000006c8:    f3ef8010    ....    MRS      r0,PRIMASK
        0x000006cc:    9000        ..      STR      r0,[sp,#0]
        0x000006ce:    660b        .f      STR      r3,[r1,#0x60]
        0x000006d0:    b672        r.      CPSID    i
        0x000006d2:    6d88        .m      LDR      r0,[r1,#0x58]
        0x000006d4:    f0200007     ...    BIC      r0,r0,#7
        0x000006d8:    6588        .e      STR      r0,[r1,#0x58]
        0x000006da:    6b08        .k      LDR      r0,[r1,#0x30]
        0x000006dc:    f02000ff     ...    BIC      r0,r0,#0xff
        0x000006e0:    f040002a    @.*.    ORR      r0,r0,#0x2a
        0x000006e4:    6308        .c      STR      r0,[r1,#0x30]
        0x000006e6:    f8d10110    ....    LDR      r0,[r1,#0x110]
        0x000006ea:    f02000ff     ...    BIC      r0,r0,#0xff
        0x000006ee:    f8c10110    ....    STR      r0,[r1,#0x110]
        0x000006f2:    660a        .f      STR      r2,[r1,#0x60]
        0x000006f4:    9800        ..      LDR      r0,[sp,#0]
        0x000006f6:    f3808810    ....    MSR      PRIMASK,r0
        0x000006fa:    f3ef8010    ....    MRS      r0,PRIMASK
        0x000006fe:    9000        ..      STR      r0,[sp,#0]
        0x00000700:    660b        .f      STR      r3,[r1,#0x60]
        0x00000702:    b672        r.      CPSID    i
        0x00000704:    6d88        .m      LDR      r0,[r1,#0x58]
        0x00000706:    f0200070     .p.    BIC      r0,r0,#0x70
        0x0000070a:    6588        .e      STR      r0,[r1,#0x58]
        0x0000070c:    6b08        .k      LDR      r0,[r1,#0x30]
        0x0000070e:    f420407f     ..@    BIC      r0,r0,#0xff00
        0x00000712:    f4405028    @.(P    ORR      r0,r0,#0x2a00
        0x00000716:    6308        .c      STR      r0,[r1,#0x30]
        0x00000718:    f8d10110    ....    LDR      r0,[r1,#0x110]
        0x0000071c:    f420407f     ..@    BIC      r0,r0,#0xff00
        0x00000720:    f8c10110    ....    STR      r0,[r1,#0x110]
        0x00000724:    660a        .f      STR      r2,[r1,#0x60]
        0x00000726:    9800        ..      LDR      r0,[sp,#0]
        0x00000728:    f3808810    ....    MSR      PRIMASK,r0
        0x0000072c:    f3ef8010    ....    MRS      r0,PRIMASK
        0x00000730:    9000        ..      STR      r0,[sp,#0]
        0x00000732:    660b        .f      STR      r3,[r1,#0x60]
        0x00000734:    b672        r.      CPSID    i
        0x00000736:    6d48        Hm      LDR      r0,[r1,#0x54]
        0x00000738:    f02040e0     ..@    BIC      r0,r0,#0x70000000
        0x0000073c:    6548        He      STR      r0,[r1,#0x54]
        0x0000073e:    6ac8        .j      LDR      r0,[r1,#0x2c]
        0x00000740:    f020407f     ..@    BIC      r0,r0,#0xff000000
        0x00000744:    f0405020    @. P    ORR      r0,r0,#0x28000000
        0x00000748:    62c8        .b      STR      r0,[r1,#0x2c]
        0x0000074a:    f8d1010c    ....    LDR      r0,[r1,#0x10c]
        0x0000074e:    f020407f     ..@    BIC      r0,r0,#0xff000000
        0x00000752:    f8c1010c    ....    STR      r0,[r1,#0x10c]
        0x00000756:    660a        .f      STR      r2,[r1,#0x60]
        0x00000758:    9800        ..      LDR      r0,[sp,#0]
        0x0000075a:    f3808810    ....    MSR      PRIMASK,r0
        0x0000075e:    e714        ..      B        0x58a ; am_bsp_iom_spi_pins_enable + 486
        0x00000760:    e7fe        ..      B        0x760 ; am_bsp_iom_spi_pins_enable + 956
    $d
        0x00000762:    0000        ..      DCW    0
        0x00000764:    40010000    ...@    DCD    1073807360
    $t
    i.am_bsp_itm_string_print
    am_bsp_itm_string_print
        0x00000768:    f002b886    ....    B.W      am_hal_itm_print ; 0x2878
    i.am_bsp_low_power_init
    am_bsp_low_power_init
        0x0000076c:    b510        ..      PUSH     {r4,lr}
        0x0000076e:    f002f8db    ....    BL       am_hal_pwrctrl_bucks_init ; 0x2928
        0x00000772:    f002f8f9    ....    BL       am_hal_pwrctrl_low_power_init ; 0x2968
        0x00000776:    f002fb3f    ..?.    BL       am_hal_vcomp_disable ; 0x2df8
        0x0000077a:    2001        .       MOVS     r0,#1
        0x0000077c:    f002fa76    ..v.    BL       am_hal_rtc_osc_select ; 0x2c6c
        0x00000780:    2001        .       MOVS     r0,#1
        0x00000782:    f000f87b    ..{.    BL       am_hal_clkgen_osc_stop ; 0x87c
        0x00000786:    e8bd4010    ...@    POP      {r4,lr}
        0x0000078a:    f002ba68    ..h.    B.W      am_hal_rtc_osc_disable ; 0x2c5e
    i.am_gpio_isr
    am_gpio_isr
        0x0000078e:    b570        p.      PUSH     {r4-r6,lr}
        0x00000790:    2000        .       MOVS     r0,#0
        0x00000792:    f000f9c9    ....    BL       am_hal_gpio_int_status_get ; 0xb28
        0x00000796:    4604        .F      MOV      r4,r0
        0x00000798:    460d        .F      MOV      r5,r1
        0x0000079a:    4620         F      MOV      r0,r4
        0x0000079c:    4629        )F      MOV      r1,r5
        0x0000079e:    f000f94d    ..M.    BL       am_hal_gpio_int_clear ; 0xa3c
        0x000007a2:    4620         F      MOV      r0,r4
        0x000007a4:    4629        )F      MOV      r1,r5
        0x000007a6:    f000f993    ....    BL       am_hal_gpio_int_service ; 0xad0
        0x000007aa:    bd70        p.      POP      {r4-r6,pc}
    i.am_hal_cachectrl_enable
    am_hal_cachectrl_enable
        0x000007ac:    b570        p.      PUSH     {r4-r6,lr}
        0x000007ae:    4604        .F      MOV      r4,r0
        0x000007b0:    78c0        .x      LDRB     r0,[r0,#3]
        0x000007b2:    7861        ax      LDRB     r1,[r4,#1]
        0x000007b4:    2202        ."      MOVS     r2,#2
        0x000007b6:    ea020141    ..A.    AND      r1,r2,r1,LSL #1
        0x000007ba:    4301        .C      ORRS     r1,r1,r0
        0x000007bc:    78a0        .x      LDRB     r0,[r4,#2]
        0x000007be:    2204        ."      MOVS     r2,#4
        0x000007c0:    ea020280    ....    AND      r2,r2,r0,LSL #2
        0x000007c4:    f3c00040    ..@.    UBFX     r0,r0,#1,#1
        0x000007c8:    ea4200c0    B...    ORR      r0,r2,r0,LSL #3
        0x000007cc:    4308        .C      ORRS     r0,r0,r1
        0x000007ce:    7921        !y      LDRB     r1,[r4,#4]
        0x000007d0:    2280        ."      MOVS     r2,#0x80
        0x000007d2:    ea0211c1    ....    AND      r1,r2,r1,LSL #7
        0x000007d6:    4308        .C      ORRS     r0,r0,r1
        0x000007d8:    79a1        .y      LDRB     r1,[r4,#6]
        0x000007da:    00d2        ..      LSLS     r2,r2,#3
        0x000007dc:    ea022181    ...!    AND      r1,r2,r1,LSL #10
        0x000007e0:    4308        .C      ORRS     r0,r0,r1
        0x000007e2:    79e1        .y      LDRB     r1,[r4,#7]
        0x000007e4:    0052        R.      LSLS     r2,r2,#1
        0x000007e6:    ea0221c1    ...!    AND      r1,r2,r1,LSL #11
        0x000007ea:    4308        .C      ORRS     r0,r0,r1
        0x000007ec:    7a21        !z      LDRB     r1,[r4,#8]
        0x000007ee:    f44f4270    O.pB    MOV      r2,#0xf000
        0x000007f2:    ea023101    ...1    AND      r1,r2,r1,LSL #12
        0x000007f6:    4308        .C      ORRS     r0,r0,r1
        0x000007f8:    7a61        az      LDRB     r1,[r4,#9]
        0x000007fa:    0112        ..      LSLS     r2,r2,#4
        0x000007fc:    ea024101    ...A    AND      r1,r2,r1,LSL #16
        0x00000800:    4308        .C      ORRS     r0,r0,r1
        0x00000802:    7aa1        .z      LDRB     r1,[r4,#0xa]
        0x00000804:    f44f1280    O...    MOV      r2,#0x100000
        0x00000808:    ea025101    ...Q    AND      r1,r2,r1,LSL #20
        0x0000080c:    4308        .C      ORRS     r0,r0,r1
        0x0000080e:    7ae1        .z      LDRB     r1,[r4,#0xb]
        0x00000810:    0112        ..      LSLS     r2,r2,#4
        0x00000812:    ea026101    ...a    AND      r1,r2,r1,LSL #24
        0x00000816:    4308        .C      ORRS     r0,r0,r1
        0x00000818:    f0400501    @...    ORR      r5,r0,#1
        0x0000081c:    f04f4020    O. @    MOV      r0,#0xa0000000
        0x00000820:    f002f8ae    ....    BL       am_hal_pwrctrl_memory_enable ; 0x2980
        0x00000824:    4814        .H      LDR      r0,[pc,#80] ; [0x878] = 0x40018000
        0x00000826:    6005        .`      STR      r5,[r0,#0]
        0x00000828:    2100        .!      MOVS     r1,#0
        0x0000082a:    6882        .h      LDR      r2,[r0,#8]
        0x0000082c:    f0120f04    ....    TST      r2,#4
        0x00000830:    bf04        ..      ITT      EQ
        0x00000832:    6882        .h      LDREQ    r2,[r0,#8]
        0x00000834:    f0120f04    ....    TSTEQ    r2,#4
        0x00000838:    d102        ..      BNE      0x840 ; am_hal_cachectrl_enable + 148
        0x0000083a:    1c89        ..      ADDS     r1,r1,#2
        0x0000083c:    2932        2)      CMP      r1,#0x32
        0x0000083e:    d3f4        ..      BCC      0x82a ; am_hal_cachectrl_enable + 126
        0x00000840:    6881        .h      LDR      r1,[r0,#8]
        0x00000842:    f0410101    A...    ORR      r1,r1,#1
        0x00000846:    6081        .`      STR      r1,[r0,#8]
        0x00000848:    2100        .!      MOVS     r1,#0
        0x0000084a:    6882        .h      LDR      r2,[r0,#8]
        0x0000084c:    f0120f04    ....    TST      r2,#4
        0x00000850:    bf04        ..      ITT      EQ
        0x00000852:    6882        .h      LDREQ    r2,[r0,#8]
        0x00000854:    f0120f04    ....    TSTEQ    r2,#4
        0x00000858:    d102        ..      BNE      0x860 ; am_hal_cachectrl_enable + 180
        0x0000085a:    1c89        ..      ADDS     r1,r1,#2
        0x0000085c:    2932        2)      CMP      r1,#0x32
        0x0000085e:    d3f4        ..      BCC      0x84a ; am_hal_cachectrl_enable + 158
        0x00000860:    7961        ay      LDRB     r1,[r4,#5]
        0x00000862:    f44f7280    O..r    MOV      r2,#0x100
        0x00000866:    ea022201    ..."    AND      r2,r2,r1,LSL #8
        0x0000086a:    f3c10140    ..@.    UBFX     r1,r1,#1,#1
        0x0000086e:    ea422141    B.A!    ORR      r1,r2,r1,LSL #9
        0x00000872:    4329        )C      ORRS     r1,r1,r5
        0x00000874:    6001        .`      STR      r1,[r0,#0]
        0x00000876:    bd70        p.      POP      {r4-r6,pc}
    $d
        0x00000878:    40018000    ...@    DCD    1073840128
    $t
    i.am_hal_clkgen_osc_stop
    am_hal_clkgen_osc_stop
        0x0000087c:    f0100f03    ....    TST      r0,#3
        0x00000880:    bf08        ..      IT       EQ
        0x00000882:    4770        pG      BXEQ     lr
        0x00000884:    f04f2140    O.@!    MOV      r1,#0x40004000
        0x00000888:    68ca        .h      LDR      r2,[r1,#0xc]
        0x0000088a:    4310        .C      ORRS     r0,r0,r2
        0x0000088c:    60c8        .`      STR      r0,[r1,#0xc]
        0x0000088e:    4770        pG      BX       lr
    i.am_hal_clkgen_sysclk_get
    am_hal_clkgen_sysclk_get
        0x00000890:    f04f2040    O.@     MOV      r0,#0x40004000
        0x00000894:    6980        .i      LDR      r0,[r0,#0x18]
        0x00000896:    f0100001    ....    ANDS     r0,r0,#1
        0x0000089a:    bf04        ..      ITT      EQ
        0x0000089c:    4803        .H      LDREQ    r0,[pc,#12] ; [0x8ac] = 0x2dc6c00
        0x0000089e:    4770        pG      BXEQ     lr
        0x000008a0:    2800        .(      CMP      r0,#0
        0x000008a2:    bf0c        ..      ITE      EQ
        0x000008a4:    f04f30ff    O..0    MOVEQ    r0,#0xffffffff
        0x000008a8:    4801        .H      LDRNE    r0,[pc,#4] ; [0x8b0] = 0x16e3600
        0x000008aa:    4770        pG      BX       lr
    $d
        0x000008ac:    02dc6c00    .l..    DCD    48000000
        0x000008b0:    016e3600    .6n.    DCD    24000000
    $t
    i.am_hal_clkgen_sysclk_select
    am_hal_clkgen_sysclk_select
        0x000008b4:    b510        ..      PUSH     {r4,lr}
        0x000008b6:    0004        ..      MOVS     r4,r0
        0x000008b8:    d004        ..      BEQ      0x8c4 ; am_hal_clkgen_sysclk_select + 16
        0x000008ba:    a206        ..      ADR      r2,{pc}+0x1a ; 0x8d4
        0x000008bc:    214f        O!      MOVS     r1,#0x4f
        0x000008be:    a013        ..      ADR      r0,{pc}+0x4e ; 0x90c
        0x000008c0:    f000f898    ....    BL       am_hal_debug_error ; 0x9f4
        0x000008c4:    f04f2040    O.@     MOV      r0,#0x40004000
        0x000008c8:    2147        G!      MOVS     r1,#0x47
        0x000008ca:    6141        Aa      STR      r1,[r0,#0x14]
        0x000008cc:    6184        .a      STR      r4,[r0,#0x18]
        0x000008ce:    2100        .!      MOVS     r1,#0
        0x000008d0:    6141        Aa      STR      r1,[r0,#0x14]
        0x000008d2:    bd10        ..      POP      {r4,pc}
    $d
        0x000008d4:    685f6d61    am_h    DCD    1751084385
        0x000008d8:    635f6c61    al_c    DCD    1667198049
        0x000008dc:    65676b6c    lkge    DCD    1701276524
        0x000008e0:    79735f6e    n_sy    DCD    2037604206
        0x000008e4:    6b6c6373    sclk    DCD    1802265459
        0x000008e8:    6c65735f    _sel    DCD    1818587999
        0x000008ec:    28746365    ect(    DCD    678716261
        0x000008f0:    69203a29    ): i    DCD    1763719721
        0x000008f4:    6c61766e    nval    DCD    1818326638
        0x000008f8:    63206469    id c    DCD    1663067241
        0x000008fc:    6b636f6c    lock    DCD    1801678700
        0x00000900:    74657320     set    DCD    1952805664
        0x00000904:    676e6974    ting    DCD    1735289204
        0x00000908:    0000002e    ....    DCD    46
        0x0000090c:    612f2e2e    ../a    DCD    1630481966
        0x00000910:    61685f6d    m_ha    DCD    1634230125
        0x00000914:    6c635f6c    l_cl    DCD    1818451820
        0x00000918:    6e65676b    kgen    DCD    1852139371
        0x0000091c:    0000632e    .c..    DCD    25390
    $t
    i.am_hal_ctimer_clear
    am_hal_ctimer_clear
        0x00000920:    4a08        .J      LDR      r2,[pc,#32] ; [0x944] = 0x4000800c
        0x00000922:    b081        ..      SUB      sp,sp,#4
        0x00000924:    eb021000    ....    ADD      r0,r2,r0,LSL #4
        0x00000928:    f3ef8210    ....    MRS      r2,PRIMASK
        0x0000092c:    9200        ..      STR      r2,[sp,#0]
        0x0000092e:    6802        .h      LDR      r2,[r0,#0]
        0x00000930:    b672        r.      CPSID    i
        0x00000932:    f0012108    ...!    AND      r1,r1,#0x8000800
        0x00000936:    4311        .C      ORRS     r1,r1,r2
        0x00000938:    6001        .`      STR      r1,[r0,#0]
        0x0000093a:    9800        ..      LDR      r0,[sp,#0]
        0x0000093c:    f3808810    ....    MSR      PRIMASK,r0
        0x00000940:    b001        ..      ADD      sp,sp,#4
        0x00000942:    4770        pG      BX       lr
    $d
        0x00000944:    4000800c    ...@    DCD    1073774604
    $t
    i.am_hal_ctimer_period_set
    am_hal_ctimer_period_set
        0x00000948:    b438        8.      PUSH     {r3-r5}
        0x0000094a:    f8dfc06c    ..l.    LDR      r12,[pc,#108] ; [0x9b8] = 0x4000800c
        0x0000094e:    4c1b        .L      LDR      r4,[pc,#108] ; [0x9bc] = 0x40008004
        0x00000950:    4d1b        .M      LDR      r5,[pc,#108] ; [0x9c0] = 0x40008008
        0x00000952:    eb0c1c00    ....    ADD      r12,r12,r0,LSL #4
        0x00000956:    eb041400    ....    ADD      r4,r4,r0,LSL #4
        0x0000095a:    eb051500    ....    ADD      r5,r5,r0,LSL #4
        0x0000095e:    f3ef8010    ....    MRS      r0,PRIMASK
        0x00000962:    b672        r.      CPSID    i
        0x00000964:    9000        ..      STR      r0,[sp,#0]
        0x00000966:    f8dc0000    ....    LDR      r0,[r12,#0]
        0x0000096a:    f5113f80    ...?    CMN      r1,#0x10000
        0x0000096e:    bf08        ..      IT       EQ
        0x00000970:    0c00        ..      LSREQ    r0,r0,#16
        0x00000972:    f40070e0    ...p    AND      r0,r0,#0x1c0
        0x00000976:    2880        .(      CMP      r0,#0x80
        0x00000978:    bf17        ..      ITETT    NE
        0x0000097a:    28c0        .(      CMPNE    r0,#0xc0
        0x0000097c:    eba20c03    ....    SUBEQ    r12,r2,r3
        0x00000980:    4694        .F      MOVNE    r12,r2
        0x00000982:    2200        ."      MOVNE    r2,#0
        0x00000984:    f5a1407f    ...@    SUB      r0,r1,#0xff00
        0x00000988:    38ff        .8      SUBS     r0,r0,#0xff
        0x0000098a:    bf04        ..      ITT      EQ
        0x0000098c:    eacc4002    ...@    PKHBTEQ  r0,r12,r2,LSL #16
        0x00000990:    6020         `      STREQ    r0,[r4,#0]
        0x00000992:    d00c        ..      BEQ      0x9ae ; am_hal_ctimer_period_set + 102
        0x00000994:    f5113f80    ...?    CMN      r1,#0x10000
        0x00000998:    eacc4002    ...@    PKHBT    r0,r12,r2,LSL #16
        0x0000099c:    d006        ..      BEQ      0x9ac ; am_hal_ctimer_period_set + 100
        0x0000099e:    6020         `      STR      r0,[r4,#0]
        0x000009a0:    ea4f401c    O..@    LSR      r0,r12,#16
        0x000009a4:    f36f020f    o...    BFC      r2,#0,#16
        0x000009a8:    eac00002    ....    PKHBT    r0,r0,r2
        0x000009ac:    6028        (`      STR      r0,[r5,#0]
        0x000009ae:    9800        ..      LDR      r0,[sp,#0]
        0x000009b0:    f3808810    ....    MSR      PRIMASK,r0
        0x000009b4:    bc38        8.      POP      {r3-r5}
        0x000009b6:    4770        pG      BX       lr
    $d
        0x000009b8:    4000800c    ...@    DCD    1073774604
        0x000009bc:    40008004    ...@    DCD    1073774596
        0x000009c0:    40008008    ...@    DCD    1073774600
    $t
    i.am_hal_ctimer_start
    am_hal_ctimer_start
        0x000009c4:    4a0a        .J      LDR      r2,[pc,#40] ; [0x9f0] = 0x4000800c
        0x000009c6:    b081        ..      SUB      sp,sp,#4
        0x000009c8:    eb021000    ....    ADD      r0,r2,r0,LSL #4
        0x000009cc:    f3ef8210    ....    MRS      r2,PRIMASK
        0x000009d0:    9200        ..      STR      r2,[sp,#0]
        0x000009d2:    6802        .h      LDR      r2,[r0,#0]
        0x000009d4:    b672        r.      CPSID    i
        0x000009d6:    f0012308    ...#    AND      r3,r1,#0x8000800
        0x000009da:    439a        .C      BICS     r2,r2,r3
        0x000009dc:    f0011101    ....    AND      r1,r1,#0x10001
        0x000009e0:    4311        .C      ORRS     r1,r1,r2
        0x000009e2:    6001        .`      STR      r1,[r0,#0]
        0x000009e4:    9800        ..      LDR      r0,[sp,#0]
        0x000009e6:    f3808810    ....    MSR      PRIMASK,r0
        0x000009ea:    b001        ..      ADD      sp,sp,#4
        0x000009ec:    4770        pG      BX       lr
    $d
        0x000009ee:    0000        ..      DCW    0
        0x000009f0:    4000800c    ...@    DCD    1073774604
    $t
    i.am_hal_debug_error
    am_hal_debug_error
        0x000009f4:    e7fe        ..      B        am_hal_debug_error ; 0x9f4
        0x000009f6:    0000        ..      MOVS     r0,r0
    i.am_hal_flash_delay
    am_hal_flash_delay
        0x000009f8:    4901        .I      LDR      r1,[pc,#4] ; [0xa00] = 0x10000060
        0x000009fa:    6b49        Ik      LDR      r1,[r1,#0x34]
        0x000009fc:    4708        .G      BX       r1
    $d
        0x000009fe:    0000        ..      DCW    0
        0x00000a00:    10000060    `...    DCD    268435552
    $t
    i.am_hal_flash_delay_status_change
    am_hal_flash_delay_status_change
        0x00000a04:    e92d41f0    -..A    PUSH     {r4-r8,lr}
        0x00000a08:    461d        .F      MOV      r5,r3
        0x00000a0a:    4616        .F      MOV      r6,r2
        0x00000a0c:    460f        .F      MOV      r7,r1
        0x00000a0e:    1e44        D.      SUBS     r4,r0,#1
        0x00000a10:    bf28        (.      IT       CS
        0x00000a12:    f8df8024    ..$.    LDRCS    r8,[pc,#36] ; [0xa38] = 0x10000060
        0x00000a16:    d30c        ..      BCC      0xa32 ; am_hal_flash_delay_status_change + 46
        0x00000a18:    6838        8h      LDR      r0,[r7,#0]
        0x00000a1a:    4030        0@      ANDS     r0,r0,r6
        0x00000a1c:    42a8        .B      CMP      r0,r5
        0x00000a1e:    d102        ..      BNE      0xa26 ; am_hal_flash_delay_status_change + 34
        0x00000a20:    2001        .       MOVS     r0,#1
        0x00000a22:    e8bd81f0    ....    POP      {r4-r8,pc}
        0x00000a26:    f8d81034    ..4.    LDR      r1,[r8,#0x34]
        0x00000a2a:    200c        .       MOVS     r0,#0xc
        0x00000a2c:    4788        .G      BLX      r1
        0x00000a2e:    1e64        d.      SUBS     r4,r4,#1
        0x00000a30:    d2f2        ..      BCS      0xa18 ; am_hal_flash_delay_status_change + 20
        0x00000a32:    2000        .       MOVS     r0,#0
        0x00000a34:    e8bd81f0    ....    POP      {r4-r8,pc}
    $d
        0x00000a38:    10000060    `...    DCD    268435552
    $t
    i.am_hal_gpio_int_clear
    am_hal_gpio_int_clear
        0x00000a3c:    b081        ..      SUB      sp,sp,#4
        0x00000a3e:    f3ef8210    ....    MRS      r2,PRIMASK
        0x00000a42:    9200        ..      STR      r2,[sp,#0]
        0x00000a44:    4a05        .J      LDR      r2,[pc,#20] ; [0xa5c] = 0x40010000
        0x00000a46:    b672        r.      CPSID    i
        0x00000a48:    f8c21218    ....    STR      r1,[r2,#0x218]
        0x00000a4c:    f8c20208    ....    STR      r0,[r2,#0x208]
        0x00000a50:    9800        ..      LDR      r0,[sp,#0]
        0x00000a52:    f3808810    ....    MSR      PRIMASK,r0
        0x00000a56:    b001        ..      ADD      sp,sp,#4
        0x00000a58:    4770        pG      BX       lr
    $d
        0x00000a5a:    0000        ..      DCW    0
        0x00000a5c:    40010000    ...@    DCD    1073807360
    $t
    i.am_hal_gpio_int_enable
    am_hal_gpio_int_enable
        0x00000a60:    4a05        .J      LDR      r2,[pc,#20] ; [0xa78] = 0x40010000
        0x00000a62:    f8d23210    ...2    LDR      r3,[r2,#0x210]
        0x00000a66:    4319        .C      ORRS     r1,r1,r3
        0x00000a68:    f8c21210    ....    STR      r1,[r2,#0x210]
        0x00000a6c:    f8d21200    ....    LDR      r1,[r2,#0x200]
        0x00000a70:    4308        .C      ORRS     r0,r0,r1
        0x00000a72:    f8c20200    ....    STR      r0,[r2,#0x200]
        0x00000a76:    4770        pG      BX       lr
    $d
        0x00000a78:    40010000    ...@    DCD    1073807360
    $t
    i.am_hal_gpio_int_register
    am_hal_gpio_int_register
        0x00000a7c:    b570        p.      PUSH     {r4-r6,lr}
        0x00000a7e:    460d        .F      MOV      r5,r1
        0x00000a80:    4604        .F      MOV      r4,r0
        0x00000a82:    2840        @(      CMP      r0,#0x40
        0x00000a84:    d305        ..      BCC      0xa92 ; am_hal_gpio_int_register + 22
        0x00000a86:    a205        ..      ADR      r2,{pc}+0x16 ; 0xa9c
        0x00000a88:    f24011d5    @...    MOV      r1,#0x1d5
        0x00000a8c:    a00a        ..      ADR      r0,{pc}+0x2c ; 0xab8
        0x00000a8e:    f7ffffb1    ....    BL       am_hal_debug_error ; 0x9f4
        0x00000a92:    480e        .H      LDR      r0,[pc,#56] ; [0xacc] = 0x100005e0
        0x00000a94:    f8405024    @.$P    STR      r5,[r0,r4,LSL #2]
        0x00000a98:    bd70        p.      POP      {r4-r6,pc}
    $d
        0x00000a9a:    0000        ..      DCW    0
        0x00000a9c:    4f495047    GPIO    DCD    1330204743
        0x00000aa0:    6d756e20     num    DCD    1836412448
        0x00000aa4:    20726562    ber     DCD    544367970
        0x00000aa8:    2074756f    out     DCD    544503151
        0x00000aac:    7220666f    of r    DCD    1914725999
        0x00000ab0:    65676e61    ange    DCD    1701277281
        0x00000ab4:    0000002e    ....    DCD    46
        0x00000ab8:    612f2e2e    ../a    DCD    1630481966
        0x00000abc:    61685f6d    m_ha    DCD    1634230125
        0x00000ac0:    70675f6c    l_gp    DCD    1885822828
        0x00000ac4:    632e6f69    io.c    DCD    1663987561
        0x00000ac8:    00000000    ....    DCD    0
        0x00000acc:    100005e0    ....    DCD    268436960
    $t
    i.am_hal_gpio_int_service
    am_hal_gpio_int_service
        0x00000ad0:    e92d41f0    -..A    PUSH     {r4-r8,lr}
        0x00000ad4:    4f13        .O      LDR      r7,[pc,#76] ; [0xb24] = 0x100005e0
        0x00000ad6:    460d        .F      MOV      r5,r1
        0x00000ad8:    0004        ..      MOVS     r4,r0
        0x00000ada:    f04f4600    O..F    MOV      r6,#0x80000000
        0x00000ade:    d00d        ..      BEQ      0xafc ; am_hal_gpio_int_service + 44
        0x00000ae0:    fab4f084    ....    CLZ      r0,r4
        0x00000ae4:    fa26f100    &...    LSR      r1,r6,r0
        0x00000ae8:    f1c0001f    ....    RSB      r0,r0,#0x1f
        0x00000aec:    438c        .C      BICS     r4,r4,r1
        0x00000aee:    f8570020    W. .    LDR      r0,[r7,r0,LSL #2]
        0x00000af2:    2800        .(      CMP      r0,#0
        0x00000af4:    bf18        ..      IT       NE
        0x00000af6:    4780        .G      BLXNE    r0
        0x00000af8:    2c00        .,      CMP      r4,#0
        0x00000afa:    d1f1        ..      BNE      0xae0 ; am_hal_gpio_int_service + 16
        0x00000afc:    2d00        .-      CMP      r5,#0
        0x00000afe:    bf08        ..      IT       EQ
        0x00000b00:    e8bd81f0    ....    POPEQ    {r4-r8,pc}
        0x00000b04:    fab5f085    ....    CLZ      r0,r5
        0x00000b08:    fa26f100    &...    LSR      r1,r6,r0
        0x00000b0c:    f1c0003f    ..?.    RSB      r0,r0,#0x3f
        0x00000b10:    438d        .C      BICS     r5,r5,r1
        0x00000b12:    f8570020    W. .    LDR      r0,[r7,r0,LSL #2]
        0x00000b16:    2800        .(      CMP      r0,#0
        0x00000b18:    bf18        ..      IT       NE
        0x00000b1a:    4780        .G      BLXNE    r0
        0x00000b1c:    2d00        .-      CMP      r5,#0
        0x00000b1e:    d1f1        ..      BNE      0xb04 ; am_hal_gpio_int_service + 52
        0x00000b20:    e8bd81f0    ....    POP      {r4-r8,pc}
    $d
        0x00000b24:    100005e0    ....    DCD    268436960
    $t
    i.am_hal_gpio_int_status_get
    am_hal_gpio_int_status_get
        0x00000b28:    b438        8.      PUSH     {r3-r5}
        0x00000b2a:    f04f32ff    O..2    MOV      r2,#0xffffffff
        0x00000b2e:    4694        .F      MOV      r12,r2
        0x00000b30:    f3ef8110    ....    MRS      r1,PRIMASK
        0x00000b34:    4b0d        .K      LDR      r3,[pc,#52] ; [0xb6c] = 0x40010000
        0x00000b36:    9100        ..      STR      r1,[sp,#0]
        0x00000b38:    b672        r.      CPSID    i
        0x00000b3a:    f8d35214    ...R    LDR      r5,[r3,#0x214]
        0x00000b3e:    f8d34204    ...B    LDR      r4,[r3,#0x204]
        0x00000b42:    2100        .!      MOVS     r1,#0
        0x00000b44:    430c        .C      ORRS     r4,r4,r1
        0x00000b46:    430d        .C      ORRS     r5,r5,r1
        0x00000b48:    b130        0.      CBZ      r0,0xb58 ; am_hal_gpio_int_status_get + 48
        0x00000b4a:    f8d30210    ....    LDR      r0,[r3,#0x210]
        0x00000b4e:    f8d32200    ..."    LDR      r2,[r3,#0x200]
        0x00000b52:    ea410c00    A...    ORR      r12,r1,r0
        0x00000b56:    430a        .C      ORRS     r2,r2,r1
        0x00000b58:    ea040002    ....    AND      r0,r4,r2
        0x00000b5c:    9a00        ..      LDR      r2,[sp,#0]
        0x00000b5e:    ea05010c    ....    AND      r1,r5,r12
        0x00000b62:    f3828810    ....    MSR      PRIMASK,r2
        0x00000b66:    bc38        8.      POP      {r3-r5}
        0x00000b68:    4770        pG      BX       lr
    $d
        0x00000b6a:    0000        ..      DCW    0
        0x00000b6c:    40010000    ...@    DCD    1073807360
    $t
    i.am_hal_i2c_bit_bang_receive
    am_hal_i2c_bit_bang_receive
        0x00000b70:    e92d5ff0    -.._    PUSH     {r4-r12,lr}
        0x00000b74:    4698        .F      MOV      r8,r3
        0x00000b76:    4617        .F      MOV      r7,r2
        0x00000b78:    460d        .F      MOV      r5,r1
        0x00000b7a:    4681        .F      MOV      r9,r0
        0x00000b7c:    9e0a        ..      LDR      r6,[sp,#0x28]
        0x00000b7e:    f002fe8d    ....    BL       i2c_pull_and_wait_scl_hi ; 0x389c
        0x00000b82:    2800        .(      CMP      r0,#0
        0x00000b84:    d166        f.      BNE      0xc54 ; am_hal_i2c_bit_bang_receive + 228
        0x00000b86:    4c70        pL      LDR      r4,[pc,#448] ; [0xd48] = 0x10000878
        0x00000b88:    6a21        !j      LDR      r1,[r4,#0x20]
        0x00000b8a:    6aa0        .j      LDR      r0,[r4,#0x28]
        0x00000b8c:    6008        .`      STR      r0,[r1,#0]
        0x00000b8e:    2005        .       MOVS     r0,#5
        0x00000b90:    f7ffff32    ..2.    BL       am_hal_flash_delay ; 0x9f8
        0x00000b94:    4648        HF      MOV      r0,r9
        0x00000b96:    f002fe9f    ....    BL       i2c_send_byte ; 0x38d8
        0x00000b9a:    b120         .      CBZ      r0,0xba6 ; am_hal_i2c_bit_bang_receive + 54
        0x00000b9c:    2802        .(      CMP      r0,#2
        0x00000b9e:    bf08        ..      IT       EQ
        0x00000ba0:    2001        .       MOVEQ    r0,#1
        0x00000ba2:    e8bd9ff0    ....    POP      {r4-r12,pc}
        0x00000ba6:    b136        6.      CBZ      r6,0xbb6 ; am_hal_i2c_bit_bang_receive + 70
        0x00000ba8:    4640        @F      MOV      r0,r8
        0x00000baa:    f002fe95    ....    BL       i2c_send_byte ; 0x38d8
        0x00000bae:    2800        .(      CMP      r0,#0
        0x00000bb0:    bf18        ..      IT       NE
        0x00000bb2:    e8bd9ff0    ....    POPNE    {r4-r12,pc}
        0x00000bb6:    f04f0a00    O...    MOV      r10,#0
        0x00000bba:    1e68        h.      SUBS     r0,r5,#1
        0x00000bbc:    f04f0880    O...    MOV      r8,#0x80
        0x00000bc0:    bf18        ..      IT       NE
        0x00000bc2:    4683        .F      MOVNE    r11,r0
        0x00000bc4:    d05b        [.      BEQ      0xc7e ; am_hal_i2c_bit_bang_receive + 270
        0x00000bc6:    bf00        ..      NOP      
        0x00000bc8:    f04f0900    O...    MOV      r9,#0
        0x00000bcc:    464d        MF      MOV      r5,r9
        0x00000bce:    6921        !i      LDR      r1,[r4,#0x10]
        0x00000bd0:    69a0        .i      LDR      r0,[r4,#0x18]
        0x00000bd2:    6008        .`      STR      r0,[r1,#0]
        0x00000bd4:    69e1        .i      LDR      r1,[r4,#0x1c]
        0x00000bd6:    6aa0        .j      LDR      r0,[r4,#0x28]
        0x00000bd8:    6008        .`      STR      r0,[r1,#0]
        0x00000bda:    2007        .       MOVS     r0,#7
        0x00000bdc:    f7ffff0c    ....    BL       am_hal_flash_delay ; 0x9f8
        0x00000be0:    68e1        .h      LDR      r1,[r4,#0xc]
        0x00000be2:    69a0        .i      LDR      r0,[r4,#0x18]
        0x00000be4:    6008        .`      STR      r0,[r1,#0]
        0x00000be6:    6961        ai      LDR      r1,[r4,#0x14]
        0x00000be8:    6809        .h      LDR      r1,[r1,#0]
        0x00000bea:    4201        .B      TST      r1,r0
        0x00000bec:    bf08        ..      IT       EQ
        0x00000bee:    f44f76c8    O..v    MOVEQ    r6,#0x190
        0x00000bf2:    d10a        ..      BNE      0xc0a ; am_hal_i2c_bit_bang_receive + 154
        0x00000bf4:    e001        ..      B        0xbfa ; am_hal_i2c_bit_bang_receive + 138
        0x00000bf6:    1e76        v.      SUBS     r6,r6,#1
        0x00000bf8:    d02c        ,.      BEQ      0xc54 ; am_hal_i2c_bit_bang_receive + 228
        0x00000bfa:    2004        .       MOVS     r0,#4
        0x00000bfc:    f7fffefc    ....    BL       am_hal_flash_delay ; 0x9f8
        0x00000c00:    6960        `i      LDR      r0,[r4,#0x14]
        0x00000c02:    6800        .h      LDR      r0,[r0,#0]
        0x00000c04:    69a1        .i      LDR      r1,[r4,#0x18]
        0x00000c06:    4208        .B      TST      r0,r1
        0x00000c08:    d0f5        ..      BEQ      0xbf6 ; am_hal_i2c_bit_bang_receive + 134
        0x00000c0a:    6a60        `j      LDR      r0,[r4,#0x24]
        0x00000c0c:    6800        .h      LDR      r0,[r0,#0]
        0x00000c0e:    6aa1        .j      LDR      r1,[r4,#0x28]
        0x00000c10:    4208        .B      TST      r0,r1
        0x00000c12:    bf1c        ..      ITT      NE
        0x00000c14:    fa28f005    (...    LSRNE    r0,r8,r5
        0x00000c18:    ea400909    @...    ORRNE    r9,r0,r9
        0x00000c1c:    2005        .       MOVS     r0,#5
        0x00000c1e:    f7fffeeb    ....    BL       am_hal_flash_delay ; 0x9f8
        0x00000c22:    1c6d        m.      ADDS     r5,r5,#1
        0x00000c24:    2d08        .-      CMP      r5,#8
        0x00000c26:    dbd2        ..      BLT      0xbce ; am_hal_i2c_bit_bang_receive + 94
        0x00000c28:    f8879000    ....    STRB     r9,[r7,#0]
        0x00000c2c:    6921        !i      LDR      r1,[r4,#0x10]
        0x00000c2e:    69a0        .i      LDR      r0,[r4,#0x18]
        0x00000c30:    6008        .`      STR      r0,[r1,#0]
        0x00000c32:    6a21        !j      LDR      r1,[r4,#0x20]
        0x00000c34:    6aa0        .j      LDR      r0,[r4,#0x28]
        0x00000c36:    6008        .`      STR      r0,[r1,#0]
        0x00000c38:    2007        .       MOVS     r0,#7
        0x00000c3a:    f7fffedd    ....    BL       am_hal_flash_delay ; 0x9f8
        0x00000c3e:    68e1        .h      LDR      r1,[r4,#0xc]
        0x00000c40:    69a0        .i      LDR      r0,[r4,#0x18]
        0x00000c42:    6008        .`      STR      r0,[r1,#0]
        0x00000c44:    6961        ai      LDR      r1,[r4,#0x14]
        0x00000c46:    6809        .h      LDR      r1,[r1,#0]
        0x00000c48:    4201        .B      TST      r1,r0
        0x00000c4a:    bf08        ..      IT       EQ
        0x00000c4c:    f44f75c8    O..u    MOVEQ    r5,#0x190
        0x00000c50:    d10d        ..      BNE      0xc6e ; am_hal_i2c_bit_bang_receive + 254
        0x00000c52:    e004        ..      B        0xc5e ; am_hal_i2c_bit_bang_receive + 238
        0x00000c54:    2003        .       MOVS     r0,#3
        0x00000c56:    e8bd9ff0    ....    POP      {r4-r12,pc}
        0x00000c5a:    1e6d        m.      SUBS     r5,r5,#1
        0x00000c5c:    d0fa        ..      BEQ      0xc54 ; am_hal_i2c_bit_bang_receive + 228
        0x00000c5e:    2004        .       MOVS     r0,#4
        0x00000c60:    f7fffeca    ....    BL       am_hal_flash_delay ; 0x9f8
        0x00000c64:    6960        `i      LDR      r0,[r4,#0x14]
        0x00000c66:    6800        .h      LDR      r0,[r0,#0]
        0x00000c68:    69a1        .i      LDR      r1,[r4,#0x18]
        0x00000c6a:    4208        .B      TST      r0,r1
        0x00000c6c:    d0f5        ..      BEQ      0xc5a ; am_hal_i2c_bit_bang_receive + 234
        0x00000c6e:    2005        .       MOVS     r0,#5
        0x00000c70:    f7fffec2    ....    BL       am_hal_flash_delay ; 0x9f8
        0x00000c74:    1c7f        ..      ADDS     r7,r7,#1
        0x00000c76:    f10a0a01    ....    ADD      r10,r10,#1
        0x00000c7a:    45da        .E      CMP      r10,r11
        0x00000c7c:    d3a4        ..      BCC      0xbc8 ; am_hal_i2c_bit_bang_receive + 88
        0x00000c7e:    46ba        .F      MOV      r10,r7
        0x00000c80:    2700        .'      MOVS     r7,#0
        0x00000c82:    463d        =F      MOV      r5,r7
        0x00000c84:    f04f0903    O...    MOV      r9,#3
        0x00000c88:    6921        !i      LDR      r1,[r4,#0x10]
        0x00000c8a:    69a0        .i      LDR      r0,[r4,#0x18]
        0x00000c8c:    6008        .`      STR      r0,[r1,#0]
        0x00000c8e:    69e1        .i      LDR      r1,[r4,#0x1c]
        0x00000c90:    6aa0        .j      LDR      r0,[r4,#0x28]
        0x00000c92:    6008        .`      STR      r0,[r1,#0]
        0x00000c94:    2007        .       MOVS     r0,#7
        0x00000c96:    f7fffeaf    ....    BL       am_hal_flash_delay ; 0x9f8
        0x00000c9a:    68e1        .h      LDR      r1,[r4,#0xc]
        0x00000c9c:    69a0        .i      LDR      r0,[r4,#0x18]
        0x00000c9e:    6008        .`      STR      r0,[r1,#0]
        0x00000ca0:    6961        ai      LDR      r1,[r4,#0x14]
        0x00000ca2:    6809        .h      LDR      r1,[r1,#0]
        0x00000ca4:    4201        .B      TST      r1,r0
        0x00000ca6:    bf08        ..      IT       EQ
        0x00000ca8:    f44f76c8    O..v    MOVEQ    r6,#0x190
        0x00000cac:    d10a        ..      BNE      0xcc4 ; am_hal_i2c_bit_bang_receive + 340
        0x00000cae:    e001        ..      B        0xcb4 ; am_hal_i2c_bit_bang_receive + 324
        0x00000cb0:    1e76        v.      SUBS     r6,r6,#1
        0x00000cb2:    d023        #.      BEQ      0xcfc ; am_hal_i2c_bit_bang_receive + 396
        0x00000cb4:    2004        .       MOVS     r0,#4
        0x00000cb6:    f7fffe9f    ....    BL       am_hal_flash_delay ; 0x9f8
        0x00000cba:    6960        `i      LDR      r0,[r4,#0x14]
        0x00000cbc:    6801        .h      LDR      r1,[r0,#0]
        0x00000cbe:    69a0        .i      LDR      r0,[r4,#0x18]
        0x00000cc0:    4201        .B      TST      r1,r0
        0x00000cc2:    d0f5        ..      BEQ      0xcb0 ; am_hal_i2c_bit_bang_receive + 320
        0x00000cc4:    6a60        `j      LDR      r0,[r4,#0x24]
        0x00000cc6:    6800        .h      LDR      r0,[r0,#0]
        0x00000cc8:    6aa1        .j      LDR      r1,[r4,#0x28]
        0x00000cca:    4208        .B      TST      r0,r1
        0x00000ccc:    bf1c        ..      ITT      NE
        0x00000cce:    fa28f005    (...    LSRNE    r0,r8,r5
        0x00000cd2:    4307        .C      ORRNE    r7,r7,r0
        0x00000cd4:    2005        .       MOVS     r0,#5
        0x00000cd6:    f7fffe8f    ....    BL       am_hal_flash_delay ; 0x9f8
        0x00000cda:    1c6d        m.      ADDS     r5,r5,#1
        0x00000cdc:    2d08        .-      CMP      r5,#8
        0x00000cde:    dbd3        ..      BLT      0xc88 ; am_hal_i2c_bit_bang_receive + 280
        0x00000ce0:    f88a7000    ...p    STRB     r7,[r10,#0]
        0x00000ce4:    6921        !i      LDR      r1,[r4,#0x10]
        0x00000ce6:    69a0        .i      LDR      r0,[r4,#0x18]
        0x00000ce8:    6008        .`      STR      r0,[r1,#0]
        0x00000cea:    69e1        .i      LDR      r1,[r4,#0x1c]
        0x00000cec:    6aa0        .j      LDR      r0,[r4,#0x28]
        0x00000cee:    6008        .`      STR      r0,[r1,#0]
        0x00000cf0:    2007        .       MOVS     r0,#7
        0x00000cf2:    f7fffe81    ....    BL       am_hal_flash_delay ; 0x9f8
        0x00000cf6:    f002fdd1    ....    BL       i2c_pull_and_wait_scl_hi ; 0x389c
        0x00000cfa:    b110        ..      CBZ      r0,0xd02 ; am_hal_i2c_bit_bang_receive + 402
        0x00000cfc:    4648        HF      MOV      r0,r9
        0x00000cfe:    e8bd9ff0    ....    POP      {r4-r12,pc}
        0x00000d02:    2005        .       MOVS     r0,#5
        0x00000d04:    f7fffe78    ..x.    BL       am_hal_flash_delay ; 0x9f8
        0x00000d08:    6921        !i      LDR      r1,[r4,#0x10]
        0x00000d0a:    69a0        .i      LDR      r0,[r4,#0x18]
        0x00000d0c:    6008        .`      STR      r0,[r1,#0]
        0x00000d0e:    2004        .       MOVS     r0,#4
        0x00000d10:    f7fffe72    ..r.    BL       am_hal_flash_delay ; 0x9f8
        0x00000d14:    980b        ..      LDR      r0,[sp,#0x2c]
        0x00000d16:    2800        .(      CMP      r0,#0
        0x00000d18:    6aa0        .j      LDR      r0,[r4,#0x28]
        0x00000d1a:    bf14        ..      ITE      NE
        0x00000d1c:    69e1        .i      LDRNE    r1,[r4,#0x1c]
        0x00000d1e:    6a21        !j      LDREQ    r1,[r4,#0x20]
        0x00000d20:    6008        .`      STR      r0,[r1,#0]
        0x00000d22:    2004        .       MOVS     r0,#4
        0x00000d24:    f7fffe68    ..h.    BL       am_hal_flash_delay ; 0x9f8
        0x00000d28:    f002fdb8    ....    BL       i2c_pull_and_wait_scl_hi ; 0x389c
        0x00000d2c:    2800        .(      CMP      r0,#0
        0x00000d2e:    d191        ..      BNE      0xc54 ; am_hal_i2c_bit_bang_receive + 228
        0x00000d30:    2005        .       MOVS     r0,#5
        0x00000d32:    f7fffe61    ..a.    BL       am_hal_flash_delay ; 0x9f8
        0x00000d36:    980b        ..      LDR      r0,[sp,#0x2c]
        0x00000d38:    b910        ..      CBNZ     r0,0xd40 ; am_hal_i2c_bit_bang_receive + 464
        0x00000d3a:    69e1        .i      LDR      r1,[r4,#0x1c]
        0x00000d3c:    6aa0        .j      LDR      r0,[r4,#0x28]
        0x00000d3e:    6008        .`      STR      r0,[r1,#0]
        0x00000d40:    2000        .       MOVS     r0,#0
        0x00000d42:    e8bd9ff0    ....    POP      {r4-r12,pc}
    $d
        0x00000d46:    0000        ..      DCW    0
        0x00000d48:    10000878    x...    DCD    268437624
    $t
    i.am_hal_i2c_bit_bang_send
    am_hal_i2c_bit_bang_send
        0x00000d4c:    e92d5ff0    -.._    PUSH     {r4-r12,lr}
        0x00000d50:    4699        .F      MOV      r9,r3
        0x00000d52:    e9dd4a0a    ...J    LDRD     r4,r10,[sp,#0x28]
        0x00000d56:    4615        .F      MOV      r5,r2
        0x00000d58:    460e        .F      MOV      r6,r1
        0x00000d5a:    4683        .F      MOV      r11,r0
        0x00000d5c:    f04f0800    O...    MOV      r8,#0
        0x00000d60:    f002fd9c    ....    BL       i2c_pull_and_wait_scl_hi ; 0x389c
        0x00000d64:    2800        .(      CMP      r0,#0
        0x00000d66:    d141        A.      BNE      0xdec ; am_hal_i2c_bit_bang_send + 160
        0x00000d68:    4f2a        *O      LDR      r7,[pc,#168] ; [0xe14] = 0x10000878
        0x00000d6a:    6a39        9j      LDR      r1,[r7,#0x20]
        0x00000d6c:    6ab8        .j      LDR      r0,[r7,#0x28]
        0x00000d6e:    6008        .`      STR      r0,[r1,#0]
        0x00000d70:    2005        .       MOVS     r0,#5
        0x00000d72:    f7fffe41    ..A.    BL       am_hal_flash_delay ; 0x9f8
        0x00000d76:    4658        XF      MOV      r0,r11
        0x00000d78:    f002fdae    ....    BL       i2c_send_byte ; 0x38d8
        0x00000d7c:    b120         .      CBZ      r0,0xd88 ; am_hal_i2c_bit_bang_send + 60
        0x00000d7e:    2802        .(      CMP      r0,#2
        0x00000d80:    bf08        ..      IT       EQ
        0x00000d82:    2001        .       MOVEQ    r0,#1
        0x00000d84:    e8bd9ff0    ....    POP      {r4-r12,pc}
        0x00000d88:    b134        4.      CBZ      r4,0xd98 ; am_hal_i2c_bit_bang_send + 76
        0x00000d8a:    4648        HF      MOV      r0,r9
        0x00000d8c:    f002fda4    ....    BL       i2c_send_byte ; 0x38d8
        0x00000d90:    2800        .(      CMP      r0,#0
        0x00000d92:    bf18        ..      IT       NE
        0x00000d94:    e8bd9ff0    ....    POPNE    {r4-r12,pc}
        0x00000d98:    2400        .$      MOVS     r4,#0
        0x00000d9a:    2e00        ..      CMP      r6,#0
        0x00000d9c:    bf88        ..      IT       HI
        0x00000d9e:    f1a60901    ....    SUBHI    r9,r6,#1
        0x00000da2:    d910        ..      BLS      0xdc6 ; am_hal_i2c_bit_bang_send + 122
        0x00000da4:    f8150b01    ....    LDRB     r0,[r5],#1
        0x00000da8:    f002fd96    ....    BL       i2c_send_byte ; 0x38d8
        0x00000dac:    b140        @.      CBZ      r0,0xdc0 ; am_hal_i2c_bit_bang_send + 116
        0x00000dae:    2802        .(      CMP      r0,#2
        0x00000db0:    bf18        ..      IT       NE
        0x00000db2:    e8bd9ff0    ....    POPNE    {r4-r12,pc}
        0x00000db6:    454c        LE      CMP      r4,r9
        0x00000db8:    d002        ..      BEQ      0xdc0 ; am_hal_i2c_bit_bang_send + 116
        0x00000dba:    f04f0801    O...    MOV      r8,#1
        0x00000dbe:    e002        ..      B        0xdc6 ; am_hal_i2c_bit_bang_send + 122
        0x00000dc0:    1c64        d.      ADDS     r4,r4,#1
        0x00000dc2:    42b4        .B      CMP      r4,r6
        0x00000dc4:    d3ee        ..      BCC      0xda4 ; am_hal_i2c_bit_bang_send + 88
        0x00000dc6:    6939        9i      LDR      r1,[r7,#0x10]
        0x00000dc8:    69b8        .i      LDR      r0,[r7,#0x18]
        0x00000dca:    6008        .`      STR      r0,[r1,#0]
        0x00000dcc:    2004        .       MOVS     r0,#4
        0x00000dce:    f7fffe13    ....    BL       am_hal_flash_delay ; 0x9f8
        0x00000dd2:    6ab8        .j      LDR      r0,[r7,#0x28]
        0x00000dd4:    f1ba0f00    ....    CMP      r10,#0
        0x00000dd8:    bf0c        ..      ITE      EQ
        0x00000dda:    6a39        9j      LDREQ    r1,[r7,#0x20]
        0x00000ddc:    69f9        .i      LDRNE    r1,[r7,#0x1c]
        0x00000dde:    6008        .`      STR      r0,[r1,#0]
        0x00000de0:    2004        .       MOVS     r0,#4
        0x00000de2:    f7fffe09    ....    BL       am_hal_flash_delay ; 0x9f8
        0x00000de6:    f002fd59    ..Y.    BL       i2c_pull_and_wait_scl_hi ; 0x389c
        0x00000dea:    b110        ..      CBZ      r0,0xdf2 ; am_hal_i2c_bit_bang_send + 166
        0x00000dec:    2003        .       MOVS     r0,#3
        0x00000dee:    e8bd9ff0    ....    POP      {r4-r12,pc}
        0x00000df2:    f1ba0f00    ....    CMP      r10,#0
        0x00000df6:    d102        ..      BNE      0xdfe ; am_hal_i2c_bit_bang_send + 178
        0x00000df8:    69f9        .i      LDR      r1,[r7,#0x1c]
        0x00000dfa:    6ab8        .j      LDR      r0,[r7,#0x28]
        0x00000dfc:    6008        .`      STR      r0,[r1,#0]
        0x00000dfe:    2005        .       MOVS     r0,#5
        0x00000e00:    f7fffdfa    ....    BL       am_hal_flash_delay ; 0x9f8
        0x00000e04:    f1b80f00    ....    CMP      r8,#0
        0x00000e08:    bf14        ..      ITE      NE
        0x00000e0a:    2002        .       MOVNE    r0,#2
        0x00000e0c:    2000        .       MOVEQ    r0,#0
        0x00000e0e:    e8bd9ff0    ....    POP      {r4-r12,pc}
    $d
        0x00000e12:    0000        ..      DCW    0
        0x00000e14:    10000878    x...    DCD    268437624
    $t
    i.am_hal_interrupt_enable
    am_hal_interrupt_enable
        0x00000e18:    280f        .(      CMP      r0,#0xf
        0x00000e1a:    d90a        ..      BLS      0xe32 ; am_hal_interrupt_enable + 26
        0x00000e1c:    3810        .8      SUBS     r0,r0,#0x10
        0x00000e1e:    f000001f    ....    AND      r0,r0,#0x1f
        0x00000e22:    2101        .!      MOVS     r1,#1
        0x00000e24:    fa01f000    ....    LSL      r0,r1,r0
        0x00000e28:    f04f21e0    O..!    MOV      r1,#0xe000e000
        0x00000e2c:    f8c10100    ....    STR      r0,[r1,#0x100]
        0x00000e30:    4770        pG      BX       lr
        0x00000e32:    490b        .I      LDR      r1,[pc,#44] ; [0xe60] = 0xe000ed24
        0x00000e34:    2804        .(      CMP      r0,#4
        0x00000e36:    d00d        ..      BEQ      0xe54 ; am_hal_interrupt_enable + 60
        0x00000e38:    2805        .(      CMP      r0,#5
        0x00000e3a:    bf04        ..      ITT      EQ
        0x00000e3c:    6808        .h      LDREQ    r0,[r1,#0]
        0x00000e3e:    f4403000    @..0    ORREQ    r0,r0,#0x20000
        0x00000e42:    d005        ..      BEQ      0xe50 ; am_hal_interrupt_enable + 56
        0x00000e44:    2806        .(      CMP      r0,#6
        0x00000e46:    bf06        ..      ITTE     EQ
        0x00000e48:    6808        .h      LDREQ    r0,[r1,#0]
        0x00000e4a:    f4402080    @..     ORREQ    r0,r0,#0x40000
        0x00000e4e:    4770        pG      BXNE     lr
        0x00000e50:    6008        .`      STR      r0,[r1,#0]
        0x00000e52:    4770        pG      BX       lr
        0x00000e54:    6808        .h      LDR      r0,[r1,#0]
        0x00000e56:    f4403080    @..0    ORR      r0,r0,#0x10000
        0x00000e5a:    6008        .`      STR      r0,[r1,#0]
        0x00000e5c:    4770        pG      BX       lr
    $d
        0x00000e5e:    0000        ..      DCW    0
        0x00000e60:    e000ed24    $...    DCD    3758157092
    $t
    i.am_hal_iom_config
    am_hal_iom_config
        0x00000e64:    e92d5ff0    -.._    PUSH     {r4-r12,lr}
        0x00000e68:    460c        .F      MOV      r4,r1
        0x00000e6a:    6809        .h      LDR      r1,[r1,#0]
        0x00000e6c:    4605        .F      MOV      r5,r0
        0x00000e6e:    2806        .(      CMP      r0,#6
        0x00000e70:    bf28        (.      IT       CS
        0x00000e72:    e8bd9ff0    ....    POPCS    {r4-r12,pc}
        0x00000e76:    7a20         z      LDRB     r0,[r4,#8]
        0x00000e78:    2800        .(      CMP      r0,#0
        0x00000e7a:    bf18        ..      IT       NE
        0x00000e7c:    f0410104    A...    ORRNE    r1,r1,#4
        0x00000e80:    7a60        `z      LDRB     r0,[r4,#9]
        0x00000e82:    2800        .(      CMP      r0,#0
        0x00000e84:    bf18        ..      IT       NE
        0x00000e86:    f0410102    A...    ORRNE    r1,r1,#2
        0x00000e8a:    4a92        .J      LDR      r2,[pc,#584] ; [0x10d4] = 0xf42400
        0x00000e8c:    6860        `h      LDR      r0,[r4,#4]
        0x00000e8e:    4290        .B      CMP      r0,r2
        0x00000e90:    bf28        (.      IT       CS
        0x00000e92:    f0410120    A. .    ORRCS    r1,r1,#0x20
        0x00000e96:    0328        (.      LSLS     r0,r5,#12
        0x00000e98:    f10046a0    ...F    ADD      r6,r0,#0x50000000
        0x00000e9c:    f5064680    ...F    ADD      r6,r6,#0x4000
        0x00000ea0:    f8c6111c    ....    STR      r1,[r6,#0x11c]
        0x00000ea4:    7aa1        .z      LDRB     r1,[r4,#0xa]
        0x00000ea6:    2904        .)      CMP      r1,#4
        0x00000ea8:    bf38        8.      IT       CC
        0x00000eaa:    2104        .!      MOVCC    r1,#4
        0x00000eac:    d302        ..      BCC      0xeb4 ; am_hal_iom_config + 80
        0x00000eae:    297c        |)      CMP      r1,#0x7c
        0x00000eb0:    bf88        ..      IT       HI
        0x00000eb2:    217c        |!      MOVHI    r1,#0x7c
        0x00000eb4:    f44f40fe    O..@    MOV      r0,#0x7f00
        0x00000eb8:    ea002001    ...     AND      r0,r0,r1,LSL #8
        0x00000ebc:    7ae1        .z      LDRB     r1,[r4,#0xb]
        0x00000ebe:    2904        .)      CMP      r1,#4
        0x00000ec0:    bf38        8.      IT       CC
        0x00000ec2:    2104        .!      MOVCC    r1,#4
        0x00000ec4:    d302        ..      BCC      0xecc ; am_hal_iom_config + 104
        0x00000ec6:    297c        |)      CMP      r1,#0x7c
        0x00000ec8:    bf88        ..      IT       HI
        0x00000eca:    217c        |!      MOVHI    r1,#0x7c
        0x00000ecc:    f001017f    ....    AND      r1,r1,#0x7f
        0x00000ed0:    4308        .C      ORRS     r0,r0,r1
        0x00000ed2:    f8c60108    ....    STR      r0,[r6,#0x108]
        0x00000ed6:    f04f0901    O...    MOV      r9,#1
        0x00000eda:    2d00        .-      CMP      r5,#0
        0x00000edc:    bf18        ..      IT       NE
        0x00000ede:    2d04        .-      CMPNE    r5,#4
        0x00000ee0:    d007        ..      BEQ      0xef2 ; am_hal_iom_config + 142
        0x00000ee2:    487d        }H      LDR      r0,[pc,#500] ; [0x10d8] = 0x40020000
        0x00000ee4:    68c0        .h      LDR      r0,[r0,#0xc]
        0x00000ee6:    b2c0        ..      UXTB     r0,r0
        0x00000ee8:    2822        "(      CMP      r0,#0x22
        0x00000eea:    bf04        ..      ITT      EQ
        0x00000eec:    6820         h      LDREQ    r0,[r4,#0]
        0x00000eee:    2800        .(      CMPEQ    r0,#0
        0x00000ef0:    d07d        }.      BEQ      0xfee ; am_hal_iom_config + 394
        0x00000ef2:    6863        ch      LDR      r3,[r4,#4]
        0x00000ef4:    f894b008    ....    LDRB     r11,[r4,#8]
        0x00000ef8:    2b00        .+      CMP      r3,#0
        0x00000efa:    f00080db    ....    BEQ.W    0x10b4 ; am_hal_iom_config + 592
        0x00000efe:    4877        wH      LDR      r0,[pc,#476] ; [0x10dc] = 0x2dc6c00
        0x00000f00:    fbb0f1f3    ....    UDIV     r1,r0,r3
        0x00000f04:    fbb0f2f3    ....    UDIV     r2,r0,r3
        0x00000f08:    fb030012    ....    MLS      r0,r3,r2,r0
        0x00000f0c:    2800        .(      CMP      r0,#0
        0x00000f0e:    bf18        ..      IT       NE
        0x00000f10:    2001        .       MOVNE    r0,#1
        0x00000f12:    eb010c00    ....    ADD      r12,r1,r0
        0x00000f16:    f1cc0000    ....    RSB      r0,r12,#0
        0x00000f1a:    ea0c0000    ....    AND      r0,r12,r0
        0x00000f1e:    fab0f080    ....    CLZ      r0,r0
        0x00000f22:    f1c0021f    ....    RSB      r2,r0,#0x1f
        0x00000f26:    2a06        .*      CMP      r2,#6
        0x00000f28:    dc7e        ~.      BGT      0x1028 ; am_hal_iom_config + 452
        0x00000f2a:    bf00        ..      NOP      
        0x00000f2c:    f5b36f37    ..7o    CMP      r3,#0xb70
        0x00000f30:    d909        ..      BLS      0xf46 ; am_hal_iom_config + 226
        0x00000f32:    f5a30174    ..t.    SUB      r1,r3,#0xf40000
        0x00000f36:    486a        jH      LDR      r0,[pc,#424] ; [0x10e0] = 0x7a11ff
        0x00000f38:    f5a15110    ...Q    SUB      r1,r1,#0x2400
        0x00000f3c:    4281        .B      CMP      r1,r0
        0x00000f3e:    bf88        ..      IT       HI
        0x00000f40:    f04f0a00    O...    MOVHI    r10,#0
        0x00000f44:    d801        ..      BHI      0xf4a ; am_hal_iom_config + 230
        0x00000f46:    f04f0a01    O...    MOV      r10,#1
        0x00000f4a:    eb09084a    ..J.    ADD      r8,r9,r10,LSL #1
        0x00000f4e:    fa08f002    ....    LSL      r0,r8,r2
        0x00000f52:    fbbcf1f0    ....    UDIV     r1,r12,r0
        0x00000f56:    fbbcf7f0    ....    UDIV     r7,r12,r0
        0x00000f5a:    fb00c017    ....    MLS      r0,r0,r7,r12
        0x00000f5e:    2800        .(      CMP      r0,#0
        0x00000f60:    bf18        ..      IT       NE
        0x00000f62:    2001        .       MOVNE    r0,#1
        0x00000f64:    4401        .D      ADD      r1,r1,r0
        0x00000f66:    fab1f081    ....    CLZ      r0,r1
        0x00000f6a:    f1c0071f    ....    RSB      r7,r0,#0x1f
        0x00000f6e:    2f07        ./      CMP      r7,#7
        0x00000f70:    bf84        ..      ITT      HI
        0x00000f72:    18b8        ..      ADDHI    r0,r7,r2
        0x00000f74:    1fc2        ..      SUBHI    r2,r0,#7
        0x00000f76:    1c50        P.      ADDS     r0,r2,#1
        0x00000f78:    2807        .(      CMP      r0,#7
        0x00000f7a:    d87d        }.      BHI      0x1078 ; am_hal_iom_config + 532
        0x00000f7c:    2f07        ./      CMP      r7,#7
        0x00000f7e:    d90c        ..      BLS      0xf9a ; am_hal_iom_config + 310
        0x00000f80:    1ffa        ..      SUBS     r2,r7,#7
        0x00000f82:    fa21f702    !...    LSR      r7,r1,r2
        0x00000f86:    fa09f202    ....    LSL      r2,r9,r2
        0x00000f8a:    fbb1fef2    ....    UDIV     lr,r1,r2
        0x00000f8e:    fb02111e    ....    MLS      r1,r2,lr,r1
        0x00000f92:    2900        .)      CMP      r1,#0
        0x00000f94:    bf18        ..      IT       NE
        0x00000f96:    2101        .!      MOVNE    r1,#1
        0x00000f98:    4439        9D      ADD      r1,r1,r7
        0x00000f9a:    4a52        RJ      LDR      r2,[pc,#328] ; [0x10e4] = 0xb71b00
        0x00000f9c:    4293        .B      CMP      r3,r2
        0x00000f9e:    d207        ..      BCS      0xfb0 ; am_hal_iom_config + 332
        0x00000fa0:    1e42        B.      SUBS     r2,r0,#1
        0x00000fa2:    fa09f202    ....    LSL      r2,r9,r2
        0x00000fa6:    4562        bE      CMP      r2,r12
        0x00000fa8:    bf18        ..      IT       NE
        0x00000faa:    f04f0c01    O...    MOVNE    r12,#1
        0x00000fae:    d101        ..      BNE      0xfb4 ; am_hal_iom_config + 336
        0x00000fb0:    f04f0c00    O...    MOV      r12,#0
        0x00000fb4:    f1bb0f01    ....    CMP      r11,#1
        0x00000fb8:    bf0c        ..      ITE      EQ
        0x00000fba:    1e8a        ..      SUBEQ    r2,r1,#2
        0x00000fbc:    1e4a        J.      SUBNE    r2,r1,#1
        0x00000fbe:    0852        R.      LSRS     r2,r2,#1
        0x00000fc0:    f44f63e0    O..c    MOV      r3,#0x700
        0x00000fc4:    ea032700    ...'    AND      r7,r3,r0,LSL #8
        0x00000fc8:    f44f6300    O..c    MOV      r3,#0x800
        0x00000fcc:    ea0323ca    ...#    AND      r3,r3,r10,LSL #11
        0x00000fd0:    f44f5980    O..Y    MOV      r9,#0x1000
        0x00000fd4:    433b        ;C      ORRS     r3,r3,r7
        0x00000fd6:    ea09390c    ...9    AND      r9,r9,r12,LSL #12
        0x00000fda:    ea430309    C...    ORR      r3,r3,r9
        0x00000fde:    f44f097f    O...    MOV      r9,#0xff0000
        0x00000fe2:    ea094202    ...B    AND      r2,r9,r2,LSL #16
        0x00000fe6:    431a        .C      ORRS     r2,r2,r3
        0x00000fe8:    f04f437f    O..C    MOV      r3,#0xff000000
        0x00000fec:    e000        ..      B        0xff0 ; am_hal_iom_config + 396
        0x00000fee:    e026        &.      B        0x103e ; am_hal_iom_config + 474
        0x00000ff0:    eb036301    ...c    ADD      r3,r3,r1,LSL #24
        0x00000ff4:    f1a10901    ....    SUB      r9,r1,#1
        0x00000ff8:    431a        .C      ORRS     r2,r2,r3
        0x00000ffa:    1e41        A.      SUBS     r1,r0,#1
        0x00000ffc:    fb0cfc09    ....    MUL      r12,r12,r9
        0x00001000:    4b36        6K      LDR      r3,[pc,#216] ; [0x10dc] = 0x2dc6c00
        0x00001002:    fa08f001    ....    LSL      r0,r8,r1
        0x00001006:    f10c0c01    ....    ADD      r12,r12,#1
        0x0000100a:    fb00f00c    ....    MUL      r0,r0,r12
        0x0000100e:    fbb3f8f0    ....    UDIV     r8,r3,r0
        0x00001012:    fbb3fcf0    ....    UDIV     r12,r3,r0
        0x00001016:    fb003818    ...8    MLS      r8,r0,r8,r3
        0x0000101a:    ebb80f50    ..P.    CMP      r8,r0,LSR #1
        0x0000101e:    bf8c        ..      ITE      HI
        0x00001020:    2001        .       MOVHI    r0,#1
        0x00001022:    2000        .       MOVLS    r0,#0
        0x00001024:    4460        `D      ADD      r0,r0,r12
        0x00001026:    e000        ..      B        0x102a ; am_hal_iom_config + 454
        0x00001028:    e051        Q.      B        0x10ce ; am_hal_iom_config + 618
        0x0000102a:    f8dfc0bc    ....    LDR      r12,[pc,#188] ; [0x10e8] = 0x3d090
        0x0000102e:    fbb0f8fc    ....    UDIV     r8,r0,r12
        0x00001032:    fb0c0818    ....    MLS      r8,r12,r8,r0
        0x00001036:    f1b80f00    ....    CMP      r8,#0
        0x0000103a:    d137        7.      BNE      0x10ac ; am_hal_iom_config + 584
        0x0000103c:    e026        &.      B        0x108c ; am_hal_iom_config + 552
        0x0000103e:    f8d6011c    ....    LDR      r0,[r6,#0x11c]
        0x00001042:    f0400004    @...    ORR      r0,r0,#4
        0x00001046:    f8c6011c    ....    STR      r0,[r6,#0x11c]
        0x0000104a:    6860        `h      LDR      r0,[r4,#4]
        0x0000104c:    f5a02140    ..@!    SUB      r1,r0,#0xc0000
        0x00001050:    f5b15154    ..TQ    SUBS     r1,r1,#0x3500
        0x00001054:    bf08        ..      IT       EQ
        0x00001056:    2002        .       MOVEQ    r0,#2
        0x00001058:    d00d        ..      BEQ      0x1076 ; am_hal_iom_config + 530
        0x0000105a:    f5a021c0    ...!    SUB      r1,r0,#0x60000
        0x0000105e:    f5b151d4    ...Q    SUBS     r1,r1,#0x1a80
        0x00001062:    bf08        ..      IT       EQ
        0x00001064:    2003        .       MOVEQ    r0,#3
        0x00001066:    d006        ..      BEQ      0x1076 ; am_hal_iom_config + 530
        0x00001068:    f5a03140    ..@1    SUB      r1,r0,#0x30000
        0x0000106c:    f5b16154    ..Ta    SUBS     r1,r1,#0xd40
        0x00001070:    bf0c        ..      ITE      EQ
        0x00001072:    2004        .       MOVEQ    r0,#4
        0x00001074:    2005        .       MOVNE    r0,#5
        0x00001076:    e000        ..      B        0x107a ; am_hal_iom_config + 534
        0x00001078:    e01c        ..      B        0x10b4 ; am_hal_iom_config + 592
        0x0000107a:    f44f61e0    O..a    MOV      r1,#0x700
        0x0000107e:    ea012000    ...     AND      r0,r1,r0,LSL #8
        0x00001082:    f4402261    @.a"    ORR      r2,r0,#0xe1000
        0x00001086:    f04252e8    B..R    ORR      r2,r2,#0x1d000000
        0x0000108a:    e00f        ..      B        0x10ac ; am_hal_iom_config + 584
        0x0000108c:    fbb0f0fc    ....    UDIV     r0,r0,r12
        0x00001090:    b160        `.      CBZ      r0,0x10ac ; am_hal_iom_config + 584
        0x00001092:    f1a00c01    ....    SUB      r12,r0,#1
        0x00001096:    ea100f0c    ....    TST      r0,r12
        0x0000109a:    d107        ..      BNE      0x10ac ; am_hal_iom_config + 584
        0x0000109c:    2003        .       MOVS     r0,#3
        0x0000109e:    4088        .@      LSLS     r0,r0,r1
        0x000010a0:    fbb3f1f0    ....    UDIV     r1,r3,r0
        0x000010a4:    fbb3f1f0    ....    UDIV     r1,r3,r0
        0x000010a8:    f4476200    G..b    ORR      r2,r7,#0x800
        0x000010ac:    2a00        .*      CMP      r2,#0
        0x000010ae:    bf18        ..      IT       NE
        0x000010b0:    f8c6210c    ...!    STRNE    r2,[r6,#0x10c]
        0x000010b4:    f7fffbec    ....    BL       am_hal_clkgen_sysclk_get ; 0x890
        0x000010b8:    6861        ah      LDR      r1,[r4,#4]
        0x000010ba:    fbb0f0f1    ....    UDIV     r0,r0,r1
        0x000010be:    490b        .I      LDR      r1,[pc,#44] ; [0x10ec] = 0x10000758
        0x000010c0:    eb0000c0    ....    ADD      r0,r0,r0,LSL #3
        0x000010c4:    0200        ..      LSLS     r0,r0,#8
        0x000010c6:    f8410025    A.%.    STR      r0,[r1,r5,LSL #2]
        0x000010ca:    e8bd9ff0    ....    POP      {r4-r12,pc}
        0x000010ce:    2206        ."      MOVS     r2,#6
        0x000010d0:    e72c        ,.      B        0xf2c ; am_hal_iom_config + 200
    $d
        0x000010d2:    0000        ..      DCW    0
        0x000010d4:    00f42400    .$..    DCD    16000000
        0x000010d8:    40020000    ...@    DCD    1073872896
        0x000010dc:    02dc6c00    .l..    DCD    48000000
        0x000010e0:    007a11ff    ..z.    DCD    7999999
        0x000010e4:    00b71b00    ....    DCD    12000000
        0x000010e8:    0003d090    ....    DCD    250000
        0x000010ec:    10000758    X...    DCD    268437336
    $t
    i.am_hal_iom_enable
    am_hal_iom_enable
        0x000010f0:    2806        .(      CMP      r0,#6
        0x000010f2:    bf28        (.      IT       CS
        0x000010f4:    4770        pG      BXCS     lr
        0x000010f6:    0301        ..      LSLS     r1,r0,#12
        0x000010f8:    f10141a0    ...A    ADD      r1,r1,#0x50000000
        0x000010fc:    f5014180    ...A    ADD      r1,r1,#0x4000
        0x00001100:    f8d1211c    ...!    LDR      r2,[r1,#0x11c]
        0x00001104:    f0424200    B..B    ORR      r2,r2,#0x80000000
        0x00001108:    f8c1211c    ...!    STR      r2,[r1,#0x11c]
        0x0000110c:    4a01        .J      LDR      r2,[pc,#4] ; [0x1114] = 0x100000b4
        0x0000110e:    2100        .!      MOVS     r1,#0
        0x00001110:    5411        .T      STRB     r1,[r2,r0]
        0x00001112:    4770        pG      BX       lr
    $d
        0x00001114:    100000b4    ....    DCD    268435636
    $t
    i.am_hal_iom_fifo_read
    am_hal_iom_fifo_read
        0x00001118:    2806        .(      CMP      r0,#6
        0x0000111a:    bf24        $.      ITT      CS
        0x0000111c:    2000        .       MOVCS    r0,#0
        0x0000111e:    4770        pG      BXCS     lr
        0x00001120:    b5f8        ..      PUSH     {r3-r7,lr}
        0x00001122:    0300        ..      LSLS     r0,r0,#12
        0x00001124:    f10045a0    ...E    ADD      r5,r0,#0x50000000
        0x00001128:    f5054580    ...E    ADD      r5,r5,#0x4000
        0x0000112c:    4614        .F      MOV      r4,r2
        0x0000112e:    f8d5011c    ....    LDR      r0,[r5,#0x11c]
        0x00001132:    460e        .F      MOV      r6,r1
        0x00001134:    f0100f08    ....    TST      r0,#8
        0x00001138:    d10a        ..      BNE      0x1150 ; am_hal_iom_fifo_read + 56
        0x0000113a:    f8d50100    ....    LDR      r0,[r5,#0x100]
        0x0000113e:    b2c0        ..      UXTB     r0,r0
        0x00001140:    42a0        .B      CMP      r0,r4
        0x00001142:    d205        ..      BCS      0x1150 ; am_hal_iom_fifo_read + 56
        0x00001144:    a218        ..      ADR      r2,{pc}+0x64 ; 0x11a8
        0x00001146:    f6407141    @.Aq    MOV      r1,#0xf41
        0x0000114a:    a025        %.      ADR      r0,{pc}+0x96 ; 0x11e0
        0x0000114c:    f7fffc52    ..R.    BL       am_hal_debug_error ; 0x9f4
        0x00001150:    08a2        ..      LSRS     r2,r4,#2
        0x00001152:    4250        PB      RSBS     r0,r2,#0
        0x00001154:    eb040080    ....    ADD      r0,r4,r0,LSL #2
        0x00001158:    2a00        .*      CMP      r2,#0
        0x0000115a:    f04f0300    O...    MOV      r3,#0
        0x0000115e:    d906        ..      BLS      0x116e ; am_hal_iom_fifo_read + 86
        0x00001160:    6829        )h      LDR      r1,[r5,#0]
        0x00001162:    f8461023    F.#.    STR      r1,[r6,r3,LSL #2]
        0x00001166:    f1030301    ....    ADD      r3,r3,#1
        0x0000116a:    429a        .B      CMP      r2,r3
        0x0000116c:    d8f8        ..      BHI      0x1160 ; am_hal_iom_fifo_read + 72
        0x0000116e:    b1c8        ..      CBZ      r0,0x11a4 ; am_hal_iom_fifo_read + 140
        0x00001170:    6829        )h      LDR      r1,[r5,#0]
        0x00001172:    9100        ..      STR      r1,[sp,#0]
        0x00001174:    eb060183    ....    ADD      r1,r6,r3,LSL #2
        0x00001178:    1e4b        K.      SUBS     r3,r1,#1
        0x0000117a:    f10d31ff    ...1    ADD      r1,sp,#0xffffffff
        0x0000117e:    f0100f01    ....    TST      r0,#1
        0x00001182:    d003        ..      BEQ      0x118c ; am_hal_iom_fifo_read + 116
        0x00001184:    f8112f01    .../    LDRB     r2,[r1,#1]!
        0x00001188:    f8032f01    .../    STRB     r2,[r3,#1]!
        0x0000118c:    ea5f0c50    _.P.    LSRS     r12,r0,#1
        0x00001190:    d008        ..      BEQ      0x11a4 ; am_hal_iom_fifo_read + 140
        0x00001192:    7848        Hx      LDRB     r0,[r1,#1]
        0x00001194:    7058        Xp      STRB     r0,[r3,#1]
        0x00001196:    f8110f02    ....    LDRB     r0,[r1,#2]!
        0x0000119a:    f8030f02    ....    STRB     r0,[r3,#2]!
        0x0000119e:    f1bc0c01    ....    SUBS     r12,r12,#1
        0x000011a2:    d1f6        ..      BNE      0x1192 ; am_hal_iom_fifo_read + 122
        0x000011a4:    4620         F      MOV      r0,r4
        0x000011a6:    bdf8        ..      POP      {r3-r7,pc}
    $d
        0x000011a8:    20656854    The     DCD    543516756
        0x000011ac:    6f666966    fifo    DCD    1868982630
        0x000011b0:    656f6420     doe    DCD    1701798944
        0x000011b4:    74276e73    sn't    DCD    1948741235
        0x000011b8:    6e6f6320     con    DCD    1852793632
        0x000011bc:    6e696174    tain    DCD    1852399988
        0x000011c0:    65687420     the    DCD    1701344288
        0x000011c4:    71657220     req    DCD    1902473760
        0x000011c8:    74736575    uest    DCD    1953719669
        0x000011cc:    6e206465    ed n    DCD    1847616613
        0x000011d0:    65626d75    umbe    DCD    1700949365
        0x000011d4:    666f2072    r of    DCD    1718558834
        0x000011d8:    74796220     byt    DCD    1954112032
        0x000011dc:    002e7365    es..    DCD    3044197
        0x000011e0:    612f2e2e    ../a    DCD    1630481966
        0x000011e4:    61685f6d    m_ha    DCD    1634230125
        0x000011e8:    6f695f6c    l_io    DCD    1869176684
        0x000011ec:    00632e6d    m.c.    DCD    6499949
    $t
    i.am_hal_iom_fifo_write
    am_hal_iom_fifo_write
        0x000011f0:    b570        p.      PUSH     {r4-r6,lr}
        0x000011f2:    4614        .F      MOV      r4,r2
        0x000011f4:    460e        .F      MOV      r6,r1
        0x000011f6:    2806        .(      CMP      r0,#6
        0x000011f8:    bf24        $.      ITT      CS
        0x000011fa:    2000        .       MOVCS    r0,#0
        0x000011fc:    bd70        p.      POPCS    {r4-r6,pc}
        0x000011fe:    0300        ..      LSLS     r0,r0,#12
        0x00001200:    f10045a0    ...E    ADD      r5,r0,#0x50000000
        0x00001204:    f5054580    ...E    ADD      r5,r5,#0x4000
        0x00001208:    f8d5011c    ....    LDR      r0,[r5,#0x11c]
        0x0000120c:    f0100f08    ....    TST      r0,#8
        0x00001210:    bf0c        ..      ITE      EQ
        0x00001212:    2080        .       MOVEQ    r0,#0x80
        0x00001214:    2040        @       MOVNE    r0,#0x40
        0x00001216:    f8d51100    ....    LDR      r1,[r5,#0x100]
        0x0000121a:    1a40        @.      SUBS     r0,r0,r1
        0x0000121c:    f00000fc    ....    AND      r0,r0,#0xfc
        0x00001220:    42a0        .B      CMP      r0,r4
        0x00001222:    d205        ..      BCS      0x1230 ; am_hal_iom_fifo_write + 64
        0x00001224:    a21b        ..      ADR      r2,{pc}+0x70 ; 0x1294
        0x00001226:    f6407106    @..q    MOV      r1,#0xf06
        0x0000122a:    a027        '.      ADR      r0,{pc}+0x9e ; 0x12c8
        0x0000122c:    f7fffbe2    ....    BL       am_hal_debug_error ; 0x9f4
        0x00001230:    2300        .#      MOVS     r3,#0
        0x00001232:    1ce1        ..      ADDS     r1,r4,#3
        0x00001234:    2903        .)      CMP      r1,#3
        0x00001236:    d922        ".      BLS      0x127e ; am_hal_iom_fifo_write + 142
        0x00001238:    f1b44f00    ...O    CMP      r4,#0x80000000
        0x0000123c:    d21f        ..      BCS      0x127e ; am_hal_iom_fifo_write + 142
        0x0000123e:    17ca        ..      ASRS     r2,r1,#31
        0x00001240:    eb017292    ...r    ADD      r2,r1,r2,LSR #30
        0x00001244:    2903        .)      CMP      r1,#3
        0x00001246:    bfd8        ..      IT       LE
        0x00001248:    2000        .       MOVLE    r0,#0
        0x0000124a:    dd05        ..      BLE      0x1258 ; am_hal_iom_fifo_write + 104
        0x0000124c:    f3c20080    ....    UBFX     r0,r2,#2,#1
        0x00001250:    b110        ..      CBZ      r0,0x1258 ; am_hal_iom_fifo_write + 104
        0x00001252:    6831        1h      LDR      r1,[r6,#0]
        0x00001254:    6029        )`      STR      r1,[r5,#0]
        0x00001256:    2301        .#      MOVS     r3,#1
        0x00001258:    2101        .!      MOVS     r1,#1
        0x0000125a:    eb0102a2    ....    ADD      r2,r1,r2,ASR #2
        0x0000125e:    1c40        @.      ADDS     r0,r0,#1
        0x00001260:    e009        ..      B        0x1276 ; am_hal_iom_fifo_write + 134
        0x00001262:    bf00        ..      NOP      
        0x00001264:    f8561023    V.#.    LDR      r1,[r6,r3,LSL #2]
        0x00001268:    6029        )`      STR      r1,[r5,#0]
        0x0000126a:    1c59        Y.      ADDS     r1,r3,#1
        0x0000126c:    f8563021    V.!0    LDR      r3,[r6,r1,LSL #2]
        0x00001270:    602b        +`      STR      r3,[r5,#0]
        0x00001272:    1c4b        K.      ADDS     r3,r1,#1
        0x00001274:    1c80        ..      ADDS     r0,r0,#2
        0x00001276:    4282        .B      CMP      r2,r0
        0x00001278:    dcf4        ..      BGT      0x1264 ; am_hal_iom_fifo_write + 116
        0x0000127a:    4620         F      MOV      r0,r4
        0x0000127c:    bd70        p.      POP      {r4-r6,pc}
        0x0000127e:    2c00        .,      CMP      r4,#0
        0x00001280:    d9fb        ..      BLS      0x127a ; am_hal_iom_fifo_write + 138
        0x00001282:    bf00        ..      NOP      
        0x00001284:    f8560023    V.#.    LDR      r0,[r6,r3,LSL #2]
        0x00001288:    6028        (`      STR      r0,[r5,#0]
        0x0000128a:    1c5b        [.      ADDS     r3,r3,#1
        0x0000128c:    ebb40f83    ....    CMP      r4,r3,LSL #2
        0x00001290:    d8f8        ..      BHI      0x1284 ; am_hal_iom_fifo_write + 148
        0x00001292:    e7f2        ..      B        0x127a ; am_hal_iom_fifo_write + 138
    $d
        0x00001294:    20656854    The     DCD    543516756
        0x00001298:    6f666966    fifo    DCD    1868982630
        0x0000129c:    756f6320     cou    DCD    1970234144
        0x000012a0:    276e646c    ldn'    DCD    661546092
        0x000012a4:    69662074    t fi    DCD    1768300660
        0x000012a8:    68742074    t th    DCD    1752440948
        0x000012ac:    65722065    e re    DCD    1701978213
        0x000012b0:    73657571    ques    DCD    1936029041
        0x000012b4:    20646574    ted     DCD    543450484
        0x000012b8:    626d756e    numb    DCD    1651340654
        0x000012bc:    6f207265    er o    DCD    1864397413
        0x000012c0:    79622066    f by    DCD    2036473958
        0x000012c4:    00736574    tes.    DCD    7562612
        0x000012c8:    612f2e2e    ../a    DCD    1630481966
        0x000012cc:    61685f6d    m_ha    DCD    1634230125
        0x000012d0:    6f695f6c    l_io    DCD    1869176684
        0x000012d4:    00632e6d    m.c.    DCD    6499949
    $t
    i.am_hal_iom_i2c_cmd_run
    am_hal_iom_i2c_cmd_run
        0x000012d8:    e92d4ff8    -..O    PUSH     {r3-r11,lr}
        0x000012dc:    460e        .F      MOV      r6,r1
        0x000012de:    990a        ..      LDR      r1,[sp,#0x28]
        0x000012e0:    2e06        ..      CMP      r6,#6
        0x000012e2:    bf24        $.      ITT      CS
        0x000012e4:    2002        .       MOVCS    r0,#2
        0x000012e6:    e8bd8ff8    ....    POPCS    {r3-r11,pc}
        0x000012ea:    2b00        .+      CMP      r3,#0
        0x000012ec:    bf04        ..      ITT      EQ
        0x000012ee:    2003        .       MOVEQ    r0,#3
        0x000012f0:    e8bd8ff8    ....    POPEQ    {r3-r11,pc}
        0x000012f4:    b2db        ..      UXTB     r3,r3
        0x000012f6:    4318        .C      ORRS     r0,r0,r3
        0x000012f8:    f06f437c    o.|C    MVN      r3,#0xfc000000
        0x000012fc:    ea034202    ...B    AND      r2,r3,r2,LSL #16
        0x00001300:    4310        .C      ORRS     r0,r0,r2
        0x00001302:    4a4a        JJ      LDR      r2,[pc,#296] ; [0x142c] = 0x5c00ff00
        0x00001304:    4d4a        JM      LDR      r5,[pc,#296] ; [0x1430] = 0xdeadbeef
        0x00001306:    4011        .@      ANDS     r1,r1,r2
        0x00001308:    ea410900    A...    ORR      r9,r1,r0
        0x0000130c:    2000        .       MOVS     r0,#0
        0x0000130e:    2104        .!      MOVS     r1,#4
        0x00001310:    4b48        HK      LDR      r3,[pc,#288] ; [0x1434] = 0x42a8
        0x00001312:    22ff        ."      MOVS     r2,#0xff
        0x00001314:    eb000440    ..@.    ADD      r4,r0,r0,LSL #1
        0x00001318:    5d1f        .]      LDRB     r7,[r3,r4]
        0x0000131a:    42b7        .B      CMP      r7,r6
        0x0000131c:    d120         .      BNE      0x1360 ; am_hal_iom_i2c_cmd_run + 136
        0x0000131e:    eb040c03    ....    ADD      r12,r4,r3
        0x00001322:    f89c7001    ...p    LDRB     r7,[r12,#1]
        0x00001326:    f00704fc    ....    AND      r4,r7,#0xfc
        0x0000132a:    f1044480    ...D    ADD      r4,r4,#0x40000000
        0x0000132e:    f5043480    ...4    ADD      r4,r4,#0x10000
        0x00001332:    f8d48000    ....    LDR      r8,[r4,#0]
        0x00001336:    07bc        ..      LSLS     r4,r7,#30
        0x00001338:    0ee4        ..      LSRS     r4,r4,#27
        0x0000133a:    fa02f704    ....    LSL      r7,r2,r4
        0x0000133e:    ea080707    ....    AND      r7,r8,r7
        0x00001342:    fa27f404    '...    LSR      r4,r7,r4
        0x00001346:    f89cc002    ....    LDRB     r12,[r12,#2]
        0x0000134a:    f3c404c2    ....    UBFX     r4,r4,#3,#3
        0x0000134e:    45a4        .E      CMP      r12,r4
        0x00001350:    d106        ..      BNE      0x1360 ; am_hal_iom_i2c_cmd_run + 136
        0x00001352:    eb000040    ..@.    ADD      r0,r0,r0,LSL #1
        0x00001356:    4418        .D      ADD      r0,r0,r3
        0x00001358:    7840        @x      LDRB     r0,[r0,#1]
        0x0000135a:    42a8        .B      CMP      r0,r5
        0x0000135c:    d106        ..      BNE      0x136c ; am_hal_iom_i2c_cmd_run + 148
        0x0000135e:    e002        ..      B        0x1366 ; am_hal_iom_i2c_cmd_run + 142
        0x00001360:    1c40        @.      ADDS     r0,r0,#1
        0x00001362:    2807        .(      CMP      r0,#7
        0x00001364:    d3d6        ..      BCC      0x1314 ; am_hal_iom_i2c_cmd_run + 60
        0x00001366:    4608        .F      MOV      r0,r1
        0x00001368:    e8bd8ff8    ....    POP      {r3-r11,pc}
        0x0000136c:    f00005fc    ....    AND      r5,r0,#0xfc
        0x00001370:    f1054580    ...E    ADD      r5,r5,#0x40000000
        0x00001374:    f5053580    ...5    ADD      r5,r5,#0x10000
        0x00001378:    f8d58000    ....    LDR      r8,[r5,#0]
        0x0000137c:    4f2e        .O      LDR      r7,[pc,#184] ; [0x1438] = 0x40010000
        0x0000137e:    f04f0b00    O...    MOV      r11,#0
        0x00001382:    2832        2(      CMP      r0,#0x32
        0x00001384:    d22d        -.      BCS      0x13e2 ; am_hal_iom_i2c_cmd_run + 266
        0x00001386:    f3ef8310    ....    MRS      r3,PRIMASK
        0x0000138a:    9300        ..      STR      r3,[sp,#0]
        0x0000138c:    2373        s#      MOVS     r3,#0x73
        0x0000138e:    663b        ;f      STR      r3,[r7,#0x60]
        0x00001390:    b672        r.      CPSID    i
        0x00001392:    237c        |#      MOVS     r3,#0x7c
        0x00001394:    ea030350    ..P.    AND      r3,r3,r0,LSR #1
        0x00001398:    443b        ;D      ADD      r3,r3,r7
        0x0000139a:    f8d3c040    ..@.    LDR      r12,[r3,#0x40]
        0x0000139e:    0744        D.      LSLS     r4,r0,#29
        0x000013a0:    0ee4        ..      LSRS     r4,r4,#27
        0x000013a2:    f04f0a07    O...    MOV      r10,#7
        0x000013a6:    fa0af404    ....    LSL      r4,r10,r4
        0x000013aa:    ea2c0c04    ,...    BIC      r12,r12,r4
        0x000013ae:    f8c3c040    ..@.    STR      r12,[r3,#0x40]
        0x000013b2:    f8d5c000    ....    LDR      r12,[r5,#0]
        0x000013b6:    0783        ..      LSLS     r3,r0,#30
        0x000013b8:    0edb        ..      LSRS     r3,r3,#27
        0x000013ba:    409a        .@      LSLS     r2,r2,r3
        0x000013bc:    241a        .$      MOVS     r4,#0x1a
        0x000013be:    ea2c0c02    ,...    BIC      r12,r12,r2
        0x000013c2:    fa04f303    ....    LSL      r3,r4,r3
        0x000013c6:    ea4c0c03    L...    ORR      r12,r12,r3
        0x000013ca:    f8c5c000    ....    STR      r12,[r5,#0]
        0x000013ce:    f8d530e0    ...0    LDR      r3,[r5,#0xe0]
        0x000013d2:    4393        .C      BICS     r3,r3,r2
        0x000013d4:    f8c530e0    ...0    STR      r3,[r5,#0xe0]
        0x000013d8:    f8c7b060    ..`.    STR      r11,[r7,#0x60]
        0x000013dc:    9a00        ..      LDR      r2,[sp,#0]
        0x000013de:    f3828810    ....    MSR      PRIMASK,r2
        0x000013e2:    f000021f    ....    AND      r2,r0,#0x1f
        0x000013e6:    ea0100d0    ....    AND      r0,r1,r0,LSR #3
        0x000013ea:    4914        .I      LDR      r1,[pc,#80] ; [0x143c] = 0x40010080
        0x000013ec:    f8dfc050    ..P.    LDR      r12,[pc,#80] ; [0x1440] = 0x10000758
        0x000013f0:    2401        .$      MOVS     r4,#1
        0x000013f2:    fa04f202    ....    LSL      r2,r4,r2
        0x000013f6:    4401        .D      ADD      r1,r1,r0
        0x000013f8:    4613        .F      MOV      r3,r2
        0x000013fa:    f85c0026    \.&.    LDR      r0,[r12,r6,LSL #2]
        0x000013fe:    f7fffb01    ....    BL       am_hal_flash_delay_status_change ; 0xa04
        0x00001402:    2173        s!      MOVS     r1,#0x73
        0x00001404:    6639        9f      STR      r1,[r7,#0x60]
        0x00001406:    f8c58000    ....    STR      r8,[r5,#0]
        0x0000140a:    f8c7b060    ..`.    STR      r11,[r7,#0x60]
        0x0000140e:    2801        .(      CMP      r0,#1
        0x00001410:    bf1c        ..      ITT      NE
        0x00001412:    4620         F      MOVNE    r0,r4
        0x00001414:    e8bd8ff8    ....    POPNE    {r3-r11,pc}
        0x00001418:    4658        XF      MOV      r0,r11
        0x0000141a:    0331        1.      LSLS     r1,r6,#12
        0x0000141c:    f10141a0    ...A    ADD      r1,r1,#0x50000000
        0x00001420:    f5014180    ...A    ADD      r1,r1,#0x4000
        0x00001424:    f8c19110    ....    STR      r9,[r1,#0x110]
        0x00001428:    e8bd8ff8    ....    POP      {r3-r11,pc}
    $d
        0x0000142c:    5c00ff00    ...\    DCD    1543569152
        0x00001430:    deadbeef    ....    DCD    3735928559
        0x00001434:    000042a8    .B..    DCD    17064
        0x00001438:    40010000    ...@    DCD    1073807360
        0x0000143c:    40010080    ...@    DCD    1073807488
        0x00001440:    10000758    X...    DCD    268437336
    $t
    i.am_hal_iom_i2c_read
    am_hal_iom_i2c_read
        0x00001444:    e92d4ff0    -..O    PUSH     {r4-r11,lr}
        0x00001448:    b08b        ..      SUB      sp,sp,#0x2c
        0x0000144a:    461f        .F      MOV      r7,r3
        0x0000144c:    9d14        ..      LDR      r5,[sp,#0x50]
        0x0000144e:    4604        .F      MOV      r4,r0
        0x00001450:    2806        .(      CMP      r0,#6
        0x00001452:    bf38        8.      IT       CC
        0x00001454:    4846        FH      LDRCC    r0,[pc,#280] ; [0x1570] = 0x100000b4
        0x00001456:    d841        A.      BHI      0x14dc ; am_hal_iom_i2c_read + 152
        0x00001458:    d202        ..      BCS      0x1460 ; am_hal_iom_i2c_read + 28
        0x0000145a:    5d03        .]      LDRB     r3,[r0,r4]
        0x0000145c:    2b00        .+      CMP      r3,#0
        0x0000145e:    d1fc        ..      BNE      0x145a ; am_hal_iom_i2c_read + 22
        0x00001460:    4e44        DN      LDR      r6,[pc,#272] ; [0x1574] = 0x100000bb
        0x00001462:    f04f0c00    O...    MOV      r12,#0
        0x00001466:    f806c004    ....    STRB     r12,[r6,r4]
        0x0000146a:    b127        '.      CBZ      r7,0x1476 ; am_hal_iom_i2c_read + 50
        0x0000146c:    2c06        .,      CMP      r4,#6
        0x0000146e:    d007        ..      BEQ      0x1480 ; am_hal_iom_i2c_read + 60
        0x00001470:    f5b77f80    ....    CMP      r7,#0x100
        0x00001474:    d323        #.      BCC      0x14be ; am_hal_iom_i2c_read + 122
        0x00001476:    2003        .       MOVS     r0,#3
        0x00001478:    5530        0U      STRB     r0,[r6,r4]
        0x0000147a:    b00b        ..      ADD      sp,sp,#0x2c
        0x0000147c:    e8bd8ff0    ....    POP      {r4-r11,pc}
        0x00001480:    f04f0301    O...    MOV      r3,#1
        0x00001484:    f0154f80    ...O    TST      r5,#0x40000000
        0x00001488:    f3c57000    ...p    UBFX     r0,r5,#28,#1
        0x0000148c:    ea430141    C.A.    ORR      r1,r3,r1,LSL #1
        0x00001490:    d007        ..      BEQ      0x14a2 ; am_hal_iom_i2c_read + 94
        0x00001492:    e9cdc000    ....    STRD     r12,r0,[sp,#0]
        0x00001496:    b2c8        ..      UXTB     r0,r1
        0x00001498:    2300        .#      MOVS     r3,#0
        0x0000149a:    4639        9F      MOV      r1,r7
        0x0000149c:    f7fffb68    ..h.    BL       am_hal_i2c_bit_bang_receive ; 0xb70
        0x000014a0:    e007        ..      B        0x14b2 ; am_hal_iom_i2c_read + 110
        0x000014a2:    e9cd3000    ...0    STRD     r3,r0,[sp,#0]
        0x000014a6:    b2c8        ..      UXTB     r0,r1
        0x000014a8:    f3c52307    ...#    UBFX     r3,r5,#8,#8
        0x000014ac:    4639        9F      MOV      r1,r7
        0x000014ae:    f7fffb5f    .._.    BL       am_hal_i2c_bit_bang_receive ; 0xb70
        0x000014b2:    4931        1I      LDR      r1,[pc,#196] ; [0x1578] = 0x427c
        0x000014b4:    5c08        .\      LDRB     r0,[r1,r0]
        0x000014b6:    71b0        .q      STRB     r0,[r6,#6]
        0x000014b8:    b00b        ..      ADD      sp,sp,#0x2c
        0x000014ba:    e8bd8ff0    ....    POP      {r4-r11,pc}
        0x000014be:    482f        /H      LDR      r0,[pc,#188] ; [0x157c] = 0x10000770
        0x000014c0:    eb040344    ..D.    ADD      r3,r4,r4,LSL #1
        0x000014c4:    eb0008c3    ....    ADD      r8,r0,r3,LSL #3
        0x000014c8:    f8d80014    ....    LDR      r0,[r8,#0x14]
        0x000014cc:    2800        .(      CMP      r0,#0
        0x000014ce:    d046        F.      BEQ      0x155e ; am_hal_iom_i2c_read + 282
        0x000014d0:    4689        .F      MOV      r9,r1
        0x000014d2:    4692        .F      MOV      r10,r2
        0x000014d4:    f04f0b00    O...    MOV      r11,#0
        0x000014d8:    2c06        .,      CMP      r4,#6
        0x000014da:    d303        ..      BCC      0x14e4 ; am_hal_iom_i2c_read + 160
        0x000014dc:    b00b        ..      ADD      sp,sp,#0x2c
        0x000014de:    2002        .       MOVS     r0,#2
        0x000014e0:    e8bd8ff0    ....    POP      {r4-r11,pc}
        0x000014e4:    f7fefe54    ..T.    BL       am_hal_interrupt_master_disable ; 0x190
        0x000014e8:    9002        ..      STR      r0,[sp,#8]
        0x000014ea:    4821        !H      LDR      r0,[pc,#132] ; [0x1570] = 0x100000b4
        0x000014ec:    5d00        .]      LDRB     r0,[r0,r4]
        0x000014ee:    2800        .(      CMP      r0,#0
        0x000014f0:    bf04        ..      ITT      EQ
        0x000014f2:    f8d80008    ....    LDREQ    r0,[r8,#8]
        0x000014f6:    2800        .(      CMPEQ    r0,#0
        0x000014f8:    d012        ..      BEQ      0x1520 ; am_hal_iom_i2c_read + 220
        0x000014fa:    a903        ..      ADD      r1,sp,#0xc
        0x000014fc:    f04f0003    O...    MOV      r0,#3
        0x00001500:    f8cdb024    ..$.    STR      r11,[sp,#0x24]
        0x00001504:    e8810611    ....    STM      r1,{r0,r4,r9,r10}
        0x00001508:    e9cd7507    ...u    STRD     r7,r5,[sp,#0x1c]
        0x0000150c:    4640        @F      MOV      r0,r8
        0x0000150e:    f04f0201    O...    MOV      r2,#1
        0x00001512:    f001fb55    ..U.    BL       am_hal_queue_item_add ; 0x2bc0
        0x00001516:    2800        .(      CMP      r0,#0
        0x00001518:    bf08        ..      IT       EQ
        0x0000151a:    2508        .%      MOVEQ    r5,#8
        0x0000151c:    d00a        ..      BEQ      0x1534 ; am_hal_iom_i2c_read + 240
        0x0000151e:    e013        ..      B        0x1548 ; am_hal_iom_i2c_read + 260
        0x00001520:    e9cd5b00    ...[    STRD     r5,r11,[sp,#0]
        0x00001524:    463b        ;F      MOV      r3,r7
        0x00001526:    4652        RF      MOV      r2,r10
        0x00001528:    4649        IF      MOV      r1,r9
        0x0000152a:    4620         F      MOV      r0,r4
        0x0000152c:    f000f82a    ..*.    BL       am_hal_iom_i2c_read_nb ; 0x1584
        0x00001530:    0005        ..      MOVS     r5,r0
        0x00001532:    d009        ..      BEQ      0x1548 ; am_hal_iom_i2c_read + 260
        0x00001534:    5535        5U      STRB     r5,[r6,r4]
        0x00001536:    9802        ..      LDR      r0,[sp,#8]
        0x00001538:    f7fefe2e    ....    BL       am_hal_interrupt_master_set ; 0x198
        0x0000153c:    0028        (.      MOVS     r0,r5
        0x0000153e:    bf1c        ..      ITT      NE
        0x00001540:    b00b        ..      ADDNE    sp,sp,#0x2c
        0x00001542:    e8bd8ff0    ....    POPNE    {r4-r11,pc}
        0x00001546:    e002        ..      B        0x154e ; am_hal_iom_i2c_read + 266
        0x00001548:    9802        ..      LDR      r0,[sp,#8]
        0x0000154a:    f7fefe25    ..%.    BL       am_hal_interrupt_master_set ; 0x198
        0x0000154e:    490c        .I      LDR      r1,[pc,#48] ; [0x1580] = 0x100000b0
        0x00001550:    4620         F      MOV      r0,r4
        0x00001552:    6809        .h      LDR      r1,[r1,#0]
        0x00001554:    4788        .G      BLX      r1
        0x00001556:    5d30        0]      LDRB     r0,[r6,r4]
        0x00001558:    b00b        ..      ADD      sp,sp,#0x2c
        0x0000155a:    e8bd8ff0    ....    POP      {r4-r11,pc}
        0x0000155e:    463b        ;F      MOV      r3,r7
        0x00001560:    4620         F      MOV      r0,r4
        0x00001562:    9500        ..      STR      r5,[sp,#0]
        0x00001564:    f000f888    ....    BL       am_hal_iom_i2c_read_nq ; 0x1678
        0x00001568:    b00b        ..      ADD      sp,sp,#0x2c
        0x0000156a:    e8bd8ff0    ....    POP      {r4-r11,pc}
    $d
        0x0000156e:    0000        ..      DCW    0
        0x00001570:    100000b4    ....    DCD    268435636
        0x00001574:    100000bb    ....    DCD    268435643
        0x00001578:    0000427c    |B..    DCD    17020
        0x0000157c:    10000770    p...    DCD    268437360
        0x00001580:    100000b0    ....    DCD    268435632
    $t
    i.am_hal_iom_i2c_read_nb
    am_hal_iom_i2c_read_nb
        0x00001584:    e92d43f0    -..C    PUSH     {r4-r9,lr}
        0x00001588:    b083        ..      SUB      sp,sp,#0xc
        0x0000158a:    4689        .F      MOV      r9,r1
        0x0000158c:    4604        .F      MOV      r4,r0
        0x0000158e:    e9dd170a    ....    LDRD     r1,r7,[sp,#0x28]
        0x00001592:    4835        5H      LDR      r0,[pc,#212] ; [0x1668] = 0x100000b4
        0x00001594:    461e        .F      MOV      r6,r3
        0x00001596:    4690        .F      MOV      r8,r2
        0x00001598:    2c06        .,      CMP      r4,#6
        0x0000159a:    bf89        ..      ITETT    HI
        0x0000159c:    2002        .       MOVHI    r0,#2
        0x0000159e:    4622        "F      MOVLS    r2,r4
        0x000015a0:    b003        ..      ADDHI    sp,sp,#0xc
        0x000015a2:    e8bd83f0    ....    POPHI    {r4-r9,pc}
        0x000015a6:    d204        ..      BCS      0x15b2 ; am_hal_iom_i2c_read_nb + 46
        0x000015a8:    f810c002    ....    LDRB     r12,[r0,r2]
        0x000015ac:    f1bc0f00    ....    CMP      r12,#0
        0x000015b0:    d1fa        ..      BNE      0x15a8 ; am_hal_iom_i2c_read_nb + 36
        0x000015b2:    4d2e        .M      LDR      r5,[pc,#184] ; [0x166c] = 0x100000bb
        0x000015b4:    2200        ."      MOVS     r2,#0
        0x000015b6:    552a        *U      STRB     r2,[r5,r4]
        0x000015b8:    b12e        ..      CBZ      r6,0x15c6 ; am_hal_iom_i2c_read_nb + 66
        0x000015ba:    2301        .#      MOVS     r3,#1
        0x000015bc:    2c06        .,      CMP      r4,#6
        0x000015be:    d007        ..      BEQ      0x15d0 ; am_hal_iom_i2c_read_nb + 76
        0x000015c0:    f5b67f80    ....    CMP      r6,#0x100
        0x000015c4:    d32c        ,.      BCC      0x1620 ; am_hal_iom_i2c_read_nb + 156
        0x000015c6:    2003        .       MOVS     r0,#3
        0x000015c8:    5528        (U      STRB     r0,[r5,r4]
        0x000015ca:    b003        ..      ADD      sp,sp,#0xc
        0x000015cc:    e8bd83f0    ....    POP      {r4-r9,pc}
        0x000015d0:    f04f0c01    O...    MOV      r12,#1
        0x000015d4:    71aa        .q      STRB     r2,[r5,#6]
        0x000015d6:    f0114f80    ...O    TST      r1,#0x40000000
        0x000015da:    f3c17000    ...p    UBFX     r0,r1,#28,#1
        0x000015de:    ea4c0c49    L.I.    ORR      r12,r12,r9,LSL #1
        0x000015e2:    d009        ..      BEQ      0x15f8 ; am_hal_iom_i2c_read_nb + 116
        0x000015e4:    e9cd2000    ...     STRD     r2,r0,[sp,#0]
        0x000015e8:    f00c00ff    ....    AND      r0,r12,#0xff
        0x000015ec:    2300        .#      MOVS     r3,#0
        0x000015ee:    4642        BF      MOV      r2,r8
        0x000015f0:    4631        1F      MOV      r1,r6
        0x000015f2:    f7fffabd    ....    BL       am_hal_i2c_bit_bang_receive ; 0xb70
        0x000015f6:    e009        ..      B        0x160c ; am_hal_iom_i2c_read_nb + 136
        0x000015f8:    e9cd3000    ...0    STRD     r3,r0,[sp,#0]
        0x000015fc:    f3c12307    ...#    UBFX     r3,r1,#8,#8
        0x00001600:    f00c00ff    ....    AND      r0,r12,#0xff
        0x00001604:    4642        BF      MOV      r2,r8
        0x00001606:    4631        1F      MOV      r1,r6
        0x00001608:    f7fffab2    ....    BL       am_hal_i2c_bit_bang_receive ; 0xb70
        0x0000160c:    4918        .I      LDR      r1,[pc,#96] ; [0x1670] = 0x427c
        0x0000160e:    2f00        ./      CMP      r7,#0
        0x00001610:    5c0c        .\      LDRB     r4,[r1,r0]
        0x00001612:    71ac        .q      STRB     r4,[r5,#6]
        0x00001614:    bf18        ..      IT       NE
        0x00001616:    47b8        .G      BLXNE    r7
        0x00001618:    4620         F      MOV      r0,r4
        0x0000161a:    b003        ..      ADD      sp,sp,#0xc
        0x0000161c:    e8bd83f0    ....    POP      {r4-r9,pc}
        0x00001620:    5503        .U      STRB     r3,[r0,r4]
        0x00001622:    0322        ".      LSLS     r2,r4,#12
        0x00001624:    f10242a0    ...B    ADD      r2,r2,#0x50000000
        0x00001628:    f5024280    ...B    ADD      r2,r2,#0x4000
        0x0000162c:    f24070ff    @..p    MOV      r0,#0x7ff
        0x00001630:    f8c20208    ....    STR      r0,[r2,#0x208]
        0x00001634:    480f        .H      LDR      r0,[pc,#60] ; [0x1674] = 0x100006e0
        0x00001636:    eb040284    ....    ADD      r2,r4,r4,LSL #2
        0x0000163a:    2302        .#      MOVS     r3,#2
        0x0000163c:    f8403022    @."0    STR      r3,[r0,r2,LSL #2]
        0x00001640:    eb000082    ....    ADD      r0,r0,r2,LSL #2
        0x00001644:    4633        3F      MOV      r3,r6
        0x00001646:    6107        .a      STR      r7,[r0,#0x10]
        0x00001648:    e9c08601    ....    STRD     r8,r6,[r0,#4]
        0x0000164c:    9100        ..      STR      r1,[sp,#0]
        0x0000164e:    464a        JF      MOV      r2,r9
        0x00001650:    4621        !F      MOV      r1,r4
        0x00001652:    f04f4000    O..@    MOV      r0,#0x80000000
        0x00001656:    f7fffe3f    ..?.    BL       am_hal_iom_i2c_cmd_run ; 0x12d8
        0x0000165a:    2800        .(      CMP      r0,#0
        0x0000165c:    bf18        ..      IT       NE
        0x0000165e:    5528        (U      STRBNE   r0,[r5,r4]
        0x00001660:    b003        ..      ADD      sp,sp,#0xc
        0x00001662:    e8bd83f0    ....    POP      {r4-r9,pc}
    $d
        0x00001666:    0000        ..      DCW    0
        0x00001668:    100000b4    ....    DCD    268435636
        0x0000166c:    100000bb    ....    DCD    268435643
        0x00001670:    0000427c    |B..    DCD    17020
        0x00001674:    100006e0    ....    DCD    268437216
    $t
    i.am_hal_iom_i2c_read_nq
    am_hal_iom_i2c_read_nq
        0x00001678:    e92d4ff0    -..O    PUSH     {r4-r11,lr}
        0x0000167c:    b083        ..      SUB      sp,sp,#0xc
        0x0000167e:    468c        .F      MOV      r12,r1
        0x00001680:    990c        ..      LDR      r1,[sp,#0x30]
        0x00001682:    461d        .F      MOV      r5,r3
        0x00001684:    4691        .F      MOV      r9,r2
        0x00001686:    4604        .F      MOV      r4,r0
        0x00001688:    f04f0a00    O...    MOV      r10,#0
        0x0000168c:    2806        .(      CMP      r0,#6
        0x0000168e:    bf38        8.      IT       CC
        0x00001690:    484a        JH      LDRCC    r0,[pc,#296] ; [0x17bc] = 0x100000b4
        0x00001692:    bf82        ..      ITTT     HI
        0x00001694:    2002        .       MOVHI    r0,#2
        0x00001696:    b003        ..      ADDHI    sp,sp,#0xc
        0x00001698:    e8bd8ff0    ....    POPHI    {r4-r11,pc}
        0x0000169c:    d202        ..      BCS      0x16a4 ; am_hal_iom_i2c_read_nq + 44
        0x0000169e:    5d02        .]      LDRB     r2,[r0,r4]
        0x000016a0:    2a00        .*      CMP      r2,#0
        0x000016a2:    d1fc        ..      BNE      0x169e ; am_hal_iom_i2c_read_nq + 38
        0x000016a4:    f8df8118    ....    LDR      r8,[pc,#280] ; [0x17c0] = 0x100000bb
        0x000016a8:    f04f0200    O...    MOV      r2,#0
        0x000016ac:    f8082004    ...     STRB     r2,[r8,r4]
        0x000016b0:    b125        %.      CBZ      r5,0x16bc ; am_hal_iom_i2c_read_nq + 68
        0x000016b2:    2c06        .,      CMP      r4,#6
        0x000016b4:    d008        ..      BEQ      0x16c8 ; am_hal_iom_i2c_read_nq + 80
        0x000016b6:    f5b57f80    ....    CMP      r5,#0x100
        0x000016ba:    d329        ).      BCC      0x1710 ; am_hal_iom_i2c_read_nq + 152
        0x000016bc:    2003        .       MOVS     r0,#3
        0x000016be:    f8080004    ....    STRB     r0,[r8,r4]
        0x000016c2:    b003        ..      ADD      sp,sp,#0xc
        0x000016c4:    e8bd8ff0    ....    POP      {r4-r11,pc}
        0x000016c8:    f04f0301    O...    MOV      r3,#1
        0x000016cc:    f0114f80    ...O    TST      r1,#0x40000000
        0x000016d0:    f3c17000    ...p    UBFX     r0,r1,#28,#1
        0x000016d4:    ea430c4c    C.L.    ORR      r12,r3,r12,LSL #1
        0x000016d8:    d009        ..      BEQ      0x16ee ; am_hal_iom_i2c_read_nq + 118
        0x000016da:    e9cd2000    ...     STRD     r2,r0,[sp,#0]
        0x000016de:    f00c00ff    ....    AND      r0,r12,#0xff
        0x000016e2:    2300        .#      MOVS     r3,#0
        0x000016e4:    464a        JF      MOV      r2,r9
        0x000016e6:    4629        )F      MOV      r1,r5
        0x000016e8:    f7fffa42    ..B.    BL       am_hal_i2c_bit_bang_receive ; 0xb70
        0x000016ec:    e009        ..      B        0x1702 ; am_hal_iom_i2c_read_nq + 138
        0x000016ee:    e9cd3000    ...0    STRD     r3,r0,[sp,#0]
        0x000016f2:    f3c12307    ...#    UBFX     r3,r1,#8,#8
        0x000016f6:    f00c00ff    ....    AND      r0,r12,#0xff
        0x000016fa:    464a        JF      MOV      r2,r9
        0x000016fc:    4629        )F      MOV      r1,r5
        0x000016fe:    f7fffa37    ..7.    BL       am_hal_i2c_bit_bang_receive ; 0xb70
        0x00001702:    4930        0I      LDR      r1,[pc,#192] ; [0x17c4] = 0x427c
        0x00001704:    5c08        .\      LDRB     r0,[r1,r0]
        0x00001706:    f8880006    ....    STRB     r0,[r8,#6]
        0x0000170a:    b003        ..      ADD      sp,sp,#0xc
        0x0000170c:    e8bd8ff0    ....    POP      {r4-r11,pc}
        0x00001710:    0320         .      LSLS     r0,r4,#12
        0x00001712:    f10046a0    ...F    ADD      r6,r0,#0x50000000
        0x00001716:    f5064680    ...F    ADD      r6,r6,#0x4000
        0x0000171a:    f8d6b200    ....    LDR      r11,[r6,#0x200]
        0x0000171e:    f8c62200    ..."    STR      r2,[r6,#0x200]
        0x00001722:    f24070ff    @..p    MOV      r0,#0x7ff
        0x00001726:    f8c60208    ....    STR      r0,[r6,#0x208]
        0x0000172a:    9100        ..      STR      r1,[sp,#0]
        0x0000172c:    4662        bF      MOV      r2,r12
        0x0000172e:    4621        !F      MOV      r1,r4
        0x00001730:    07c0        ..      LSLS     r0,r0,#31
        0x00001732:    f7fffdd1    ....    BL       am_hal_iom_i2c_cmd_run ; 0x12d8
        0x00001736:    b150        P.      CBZ      r0,0x174e ; am_hal_iom_i2c_read_nq + 214
        0x00001738:    f8080004    ....    STRB     r0,[r8,r4]
        0x0000173c:    f24071ff    @..q    MOV      r1,#0x7ff
        0x00001740:    f8c61208    ....    STR      r1,[r6,#0x208]
        0x00001744:    f8c6b200    ....    STR      r11,[r6,#0x200]
        0x00001748:    b003        ..      ADD      sp,sp,#0xc
        0x0000174a:    e8bd8ff0    ....    POP      {r4-r11,pc}
        0x0000174e:    2c06        .,      CMP      r4,#6
        0x00001750:    bf2e        ..      ITEE     CS
        0x00001752:    2700        .'      MOVCS    r7,#0
        0x00001754:    f8d60100    ....    LDRCC    r0,[r6,#0x100]
        0x00001758:    b2c7        ..      UXTBCC   r7,r0
        0x0000175a:    42af        .B      CMP      r7,r5
        0x0000175c:    d306        ..      BCC      0x176c ; am_hal_iom_i2c_read_nq + 244
        0x0000175e:    462a        *F      MOV      r2,r5
        0x00001760:    4649        IF      MOV      r1,r9
        0x00001762:    4620         F      MOV      r0,r4
        0x00001764:    f7fffcd8    ....    BL       am_hal_iom_fifo_read ; 0x1118
        0x00001768:    2500        .%      MOVS     r5,#0
        0x0000176a:    e00b        ..      B        0x1784 ; am_hal_iom_i2c_read_nq + 268
        0x0000176c:    2f04        ./      CMP      r7,#4
        0x0000176e:    d309        ..      BCC      0x1784 ; am_hal_iom_i2c_read_nq + 268
        0x00001770:    f0270203    '...    BIC      r2,r7,#3
        0x00001774:    4649        IF      MOV      r1,r9
        0x00001776:    4620         F      MOV      r0,r4
        0x00001778:    f7fffcce    ....    BL       am_hal_iom_fifo_read ; 0x1118
        0x0000177c:    f0270003    '...    BIC      r0,r7,#3
        0x00001780:    1a2d        -.      SUBS     r5,r5,r0
        0x00001782:    4481        .D      ADD      r9,r9,r0
        0x00001784:    f1ba0f01    ....    CMP      r10,#1
        0x00001788:    d005        ..      BEQ      0x1796 ; am_hal_iom_i2c_read_nq + 286
        0x0000178a:    f8d60204    ....    LDR      r0,[r6,#0x204]
        0x0000178e:    2d00        .-      CMP      r5,#0
        0x00001790:    f0000a01    ....    AND      r10,r0,#1
        0x00001794:    d1db        ..      BNE      0x174e ; am_hal_iom_i2c_read_nq + 214
        0x00001796:    480c        .H      LDR      r0,[pc,#48] ; [0x17c8] = 0x50004204
        0x00001798:    2301        .#      MOVS     r3,#1
        0x0000179a:    eb003104    ...1    ADD      r1,r0,r4,LSL #12
        0x0000179e:    480b        .H      LDR      r0,[pc,#44] ; [0x17cc] = 0x10000758
        0x000017a0:    461a        .F      MOV      r2,r3
        0x000017a2:    f8500024    P.$.    LDR      r0,[r0,r4,LSL #2]
        0x000017a6:    f7fff92d    ..-.    BL       am_hal_flash_delay_status_change ; 0xa04
        0x000017aa:    2801        .(      CMP      r0,#1
        0x000017ac:    bf18        ..      IT       NE
        0x000017ae:    2001        .       MOVNE    r0,#1
        0x000017b0:    d1c2        ..      BNE      0x1738 ; am_hal_iom_i2c_read_nq + 192
        0x000017b2:    2100        .!      MOVS     r1,#0
        0x000017b4:    4620         F      MOV      r0,r4
        0x000017b6:    f002f8df    ....    BL       internal_iom_get_int_err ; 0x3978
        0x000017ba:    e7bd        ..      B        0x1738 ; am_hal_iom_i2c_read_nq + 192
    $d
        0x000017bc:    100000b4    ....    DCD    268435636
        0x000017c0:    100000bb    ....    DCD    268435643
        0x000017c4:    0000427c    |B..    DCD    17020
        0x000017c8:    50004204    .B.P    DCD    1342194180
        0x000017cc:    10000758    X...    DCD    268437336
    $t
    i.am_hal_iom_i2c_write
    am_hal_iom_i2c_write
        0x000017d0:    e92d4ff0    -..O    PUSH     {r4-r11,lr}
        0x000017d4:    b08b        ..      SUB      sp,sp,#0x2c
        0x000017d6:    461f        .F      MOV      r7,r3
        0x000017d8:    9d14        ..      LDR      r5,[sp,#0x50]
        0x000017da:    4689        .F      MOV      r9,r1
        0x000017dc:    4604        .F      MOV      r4,r0
        0x000017de:    2806        .(      CMP      r0,#6
        0x000017e0:    bf38        8.      IT       CC
        0x000017e2:    4845        EH      LDRCC    r0,[pc,#276] ; [0x18f8] = 0x100000b4
        0x000017e4:    d83e        >.      BHI      0x1864 ; am_hal_iom_i2c_write + 148
        0x000017e6:    d202        ..      BCS      0x17ee ; am_hal_iom_i2c_write + 30
        0x000017e8:    5d01        .]      LDRB     r1,[r0,r4]
        0x000017ea:    2900        .)      CMP      r1,#0
        0x000017ec:    d1fc        ..      BNE      0x17e8 ; am_hal_iom_i2c_write + 24
        0x000017ee:    4e43        CN      LDR      r6,[pc,#268] ; [0x18fc] = 0x100000bb
        0x000017f0:    f04f0300    O...    MOV      r3,#0
        0x000017f4:    5533        3U      STRB     r3,[r6,r4]
        0x000017f6:    b127        '.      CBZ      r7,0x1802 ; am_hal_iom_i2c_write + 50
        0x000017f8:    2c06        .,      CMP      r4,#6
        0x000017fa:    d007        ..      BEQ      0x180c ; am_hal_iom_i2c_write + 60
        0x000017fc:    f5b77f80    ....    CMP      r7,#0x100
        0x00001800:    d322        ".      BCC      0x1848 ; am_hal_iom_i2c_write + 120
        0x00001802:    2003        .       MOVS     r0,#3
        0x00001804:    5530        0U      STRB     r0,[r6,r4]
        0x00001806:    b00b        ..      ADD      sp,sp,#0x2c
        0x00001808:    e8bd8ff0    ....    POP      {r4-r11,pc}
        0x0000180c:    f0154f80    ...O    TST      r5,#0x40000000
        0x00001810:    f3c57000    ...p    UBFX     r0,r5,#28,#1
        0x00001814:    ea4f0149    O.I.    LSL      r1,r9,#1
        0x00001818:    d007        ..      BEQ      0x182a ; am_hal_iom_i2c_write + 90
        0x0000181a:    e9cd3000    ...0    STRD     r3,r0,[sp,#0]
        0x0000181e:    b2c8        ..      UXTB     r0,r1
        0x00001820:    2300        .#      MOVS     r3,#0
        0x00001822:    4639        9F      MOV      r1,r7
        0x00001824:    f7fffa92    ....    BL       am_hal_i2c_bit_bang_send ; 0xd4c
        0x00001828:    e008        ..      B        0x183c ; am_hal_iom_i2c_write + 108
        0x0000182a:    2301        .#      MOVS     r3,#1
        0x0000182c:    e9cd3000    ...0    STRD     r3,r0,[sp,#0]
        0x00001830:    b2c8        ..      UXTB     r0,r1
        0x00001832:    f3c52307    ...#    UBFX     r3,r5,#8,#8
        0x00001836:    4639        9F      MOV      r1,r7
        0x00001838:    f7fffa88    ....    BL       am_hal_i2c_bit_bang_send ; 0xd4c
        0x0000183c:    4930        0I      LDR      r1,[pc,#192] ; [0x1900] = 0x427c
        0x0000183e:    5c08        .\      LDRB     r0,[r1,r0]
        0x00001840:    71b0        .q      STRB     r0,[r6,#6]
        0x00001842:    b00b        ..      ADD      sp,sp,#0x2c
        0x00001844:    e8bd8ff0    ....    POP      {r4-r11,pc}
        0x00001848:    482e        .H      LDR      r0,[pc,#184] ; [0x1904] = 0x10000770
        0x0000184a:    eb040144    ..D.    ADD      r1,r4,r4,LSL #1
        0x0000184e:    eb0008c1    ....    ADD      r8,r0,r1,LSL #3
        0x00001852:    f8d80014    ....    LDR      r0,[r8,#0x14]
        0x00001856:    2800        .(      CMP      r0,#0
        0x00001858:    d045        E.      BEQ      0x18e6 ; am_hal_iom_i2c_write + 278
        0x0000185a:    4692        .F      MOV      r10,r2
        0x0000185c:    f04f0b00    O...    MOV      r11,#0
        0x00001860:    2c06        .,      CMP      r4,#6
        0x00001862:    d303        ..      BCC      0x186c ; am_hal_iom_i2c_write + 156
        0x00001864:    b00b        ..      ADD      sp,sp,#0x2c
        0x00001866:    2002        .       MOVS     r0,#2
        0x00001868:    e8bd8ff0    ....    POP      {r4-r11,pc}
        0x0000186c:    f7fefc90    ....    BL       am_hal_interrupt_master_disable ; 0x190
        0x00001870:    9002        ..      STR      r0,[sp,#8]
        0x00001872:    4821        !H      LDR      r0,[pc,#132] ; [0x18f8] = 0x100000b4
        0x00001874:    5d00        .]      LDRB     r0,[r0,r4]
        0x00001876:    2800        .(      CMP      r0,#0
        0x00001878:    bf04        ..      ITT      EQ
        0x0000187a:    f8d80008    ....    LDREQ    r0,[r8,#8]
        0x0000187e:    2800        .(      CMPEQ    r0,#0
        0x00001880:    d012        ..      BEQ      0x18a8 ; am_hal_iom_i2c_write + 216
        0x00001882:    a903        ..      ADD      r1,sp,#0xc
        0x00001884:    f04f0002    O...    MOV      r0,#2
        0x00001888:    f8cdb024    ..$.    STR      r11,[sp,#0x24]
        0x0000188c:    e8810611    ....    STM      r1,{r0,r4,r9,r10}
        0x00001890:    e9cd7507    ...u    STRD     r7,r5,[sp,#0x1c]
        0x00001894:    4640        @F      MOV      r0,r8
        0x00001896:    f04f0201    O...    MOV      r2,#1
        0x0000189a:    f001f991    ....    BL       am_hal_queue_item_add ; 0x2bc0
        0x0000189e:    2800        .(      CMP      r0,#0
        0x000018a0:    bf08        ..      IT       EQ
        0x000018a2:    2508        .%      MOVEQ    r5,#8
        0x000018a4:    d00a        ..      BEQ      0x18bc ; am_hal_iom_i2c_write + 236
        0x000018a6:    e013        ..      B        0x18d0 ; am_hal_iom_i2c_write + 256
        0x000018a8:    e9cd5b00    ...[    STRD     r5,r11,[sp,#0]
        0x000018ac:    463b        ;F      MOV      r3,r7
        0x000018ae:    4652        RF      MOV      r2,r10
        0x000018b0:    4649        IF      MOV      r1,r9
        0x000018b2:    4620         F      MOV      r0,r4
        0x000018b4:    f000f82a    ..*.    BL       am_hal_iom_i2c_write_nb ; 0x190c
        0x000018b8:    0005        ..      MOVS     r5,r0
        0x000018ba:    d009        ..      BEQ      0x18d0 ; am_hal_iom_i2c_write + 256
        0x000018bc:    5535        5U      STRB     r5,[r6,r4]
        0x000018be:    9802        ..      LDR      r0,[sp,#8]
        0x000018c0:    f7fefc6a    ..j.    BL       am_hal_interrupt_master_set ; 0x198
        0x000018c4:    0028        (.      MOVS     r0,r5
        0x000018c6:    bf1c        ..      ITT      NE
        0x000018c8:    b00b        ..      ADDNE    sp,sp,#0x2c
        0x000018ca:    e8bd8ff0    ....    POPNE    {r4-r11,pc}
        0x000018ce:    e002        ..      B        0x18d6 ; am_hal_iom_i2c_write + 262
        0x000018d0:    9802        ..      LDR      r0,[sp,#8]
        0x000018d2:    f7fefc61    ..a.    BL       am_hal_interrupt_master_set ; 0x198
        0x000018d6:    490c        .I      LDR      r1,[pc,#48] ; [0x1908] = 0x100000b0
        0x000018d8:    4620         F      MOV      r0,r4
        0x000018da:    6809        .h      LDR      r1,[r1,#0]
        0x000018dc:    4788        .G      BLX      r1
        0x000018de:    5d30        0]      LDRB     r0,[r6,r4]
        0x000018e0:    b00b        ..      ADD      sp,sp,#0x2c
        0x000018e2:    e8bd8ff0    ....    POP      {r4-r11,pc}
        0x000018e6:    463b        ;F      MOV      r3,r7
        0x000018e8:    4649        IF      MOV      r1,r9
        0x000018ea:    4620         F      MOV      r0,r4
        0x000018ec:    9500        ..      STR      r5,[sp,#0]
        0x000018ee:    f000f89f    ....    BL       am_hal_iom_i2c_write_nq ; 0x1a30
        0x000018f2:    b00b        ..      ADD      sp,sp,#0x2c
        0x000018f4:    e8bd8ff0    ....    POP      {r4-r11,pc}
    $d
        0x000018f8:    100000b4    ....    DCD    268435636
        0x000018fc:    100000bb    ....    DCD    268435643
        0x00001900:    0000427c    |B..    DCD    17020
        0x00001904:    10000770    p...    DCD    268437360
        0x00001908:    100000b0    ....    DCD    268435632
    $t
    i.am_hal_iom_i2c_write_nb
    am_hal_iom_i2c_write_nb
        0x0000190c:    e92d4fff    -..O    PUSH     {r0-r11,lr}
        0x00001910:    b083        ..      SUB      sp,sp,#0xc
        0x00001912:    4604        .F      MOV      r4,r0
        0x00001914:    e9dd9b10    ....    LDRD     r9,r11,[sp,#0x40]
        0x00001918:    4841        AH      LDR      r0,[pc,#260] ; [0x1a20] = 0x100000b4
        0x0000191a:    461e        .F      MOV      r6,r3
        0x0000191c:    2c06        .,      CMP      r4,#6
        0x0000191e:    bf82        ..      ITTT     HI
        0x00001920:    2002        .       MOVHI    r0,#2
        0x00001922:    b007        ..      ADDHI    sp,sp,#0x1c
        0x00001924:    e8bd8ff0    ....    POPHI    {r4-r11,pc}
        0x00001928:    d202        ..      BCS      0x1930 ; am_hal_iom_i2c_write_nb + 36
        0x0000192a:    5d01        .]      LDRB     r1,[r0,r4]
        0x0000192c:    2900        .)      CMP      r1,#0
        0x0000192e:    d1fc        ..      BNE      0x192a ; am_hal_iom_i2c_write_nb + 30
        0x00001930:    f8df80f0    ....    LDR      r8,[pc,#240] ; [0x1a24] = 0x100000bb
        0x00001934:    f04f0500    O...    MOV      r5,#0
        0x00001938:    f8085004    ...P    STRB     r5,[r8,r4]
        0x0000193c:    b136        6.      CBZ      r6,0x194c ; am_hal_iom_i2c_write_nb + 64
        0x0000193e:    f04f0a01    O...    MOV      r10,#1
        0x00001942:    2c06        .,      CMP      r4,#6
        0x00001944:    d008        ..      BEQ      0x1958 ; am_hal_iom_i2c_write_nb + 76
        0x00001946:    f5b67f80    ....    CMP      r6,#0x100
        0x0000194a:    d32d        -.      BCC      0x19a8 ; am_hal_iom_i2c_write_nb + 156
        0x0000194c:    2003        .       MOVS     r0,#3
        0x0000194e:    f8080004    ....    STRB     r0,[r8,r4]
        0x00001952:    b007        ..      ADD      sp,sp,#0x1c
        0x00001954:    e8bd8ff0    ....    POP      {r4-r11,pc}
        0x00001958:    f8885006    ...P    STRB     r5,[r8,#6]
        0x0000195c:    9904        ..      LDR      r1,[sp,#0x10]
        0x0000195e:    f0194f80    ...O    TST      r9,#0x40000000
        0x00001962:    f3c97000    ...p    UBFX     r0,r9,#28,#1
        0x00001966:    ea4f0141    O.A.    LSL      r1,r1,#1
        0x0000196a:    d008        ..      BEQ      0x197e ; am_hal_iom_i2c_write_nb + 114
        0x0000196c:    e9cd5000    ...P    STRD     r5,r0,[sp,#0]
        0x00001970:    b2c8        ..      UXTB     r0,r1
        0x00001972:    2300        .#      MOVS     r3,#0
        0x00001974:    4631        1F      MOV      r1,r6
        0x00001976:    9a05        ..      LDR      r2,[sp,#0x14]
        0x00001978:    f7fff9e8    ....    BL       am_hal_i2c_bit_bang_send ; 0xd4c
        0x0000197c:    e008        ..      B        0x1990 ; am_hal_iom_i2c_write_nb + 132
        0x0000197e:    e9cda000    ....    STRD     r10,r0,[sp,#0]
        0x00001982:    b2c8        ..      UXTB     r0,r1
        0x00001984:    f3c92307    ...#    UBFX     r3,r9,#8,#8
        0x00001988:    4631        1F      MOV      r1,r6
        0x0000198a:    9a05        ..      LDR      r2,[sp,#0x14]
        0x0000198c:    f7fff9de    ....    BL       am_hal_i2c_bit_bang_send ; 0xd4c
        0x00001990:    4925        %I      LDR      r1,[pc,#148] ; [0x1a28] = 0x427c
        0x00001992:    f1bb0f00    ....    CMP      r11,#0
        0x00001996:    5c0c        .\      LDRB     r4,[r1,r0]
        0x00001998:    f8884006    ...@    STRB     r4,[r8,#6]
        0x0000199c:    bf18        ..      IT       NE
        0x0000199e:    47d8        .G      BLXNE    r11
        0x000019a0:    4620         F      MOV      r0,r4
        0x000019a2:    b007        ..      ADD      sp,sp,#0x1c
        0x000019a4:    e8bd8ff0    ....    POP      {r4-r11,pc}
        0x000019a8:    0321        !.      LSLS     r1,r4,#12
        0x000019aa:    f10141a0    ...A    ADD      r1,r1,#0x50000000
        0x000019ae:    f5014180    ...A    ADD      r1,r1,#0x4000
        0x000019b2:    f8d1211c    ...!    LDR      r2,[r1,#0x11c]
        0x000019b6:    f0120f08    ....    TST      r2,#8
        0x000019ba:    bf0c        ..      ITE      EQ
        0x000019bc:    2780        .'      MOVEQ    r7,#0x80
        0x000019be:    2740        @'      MOVNE    r7,#0x40
        0x000019c0:    42be        .B      CMP      r6,r7
        0x000019c2:    bf98        ..      IT       LS
        0x000019c4:    461f        .F      MOVLS    r7,r3
        0x000019c6:    f800a004    ....    STRB     r10,[r0,r4]
        0x000019ca:    f24070ff    @..p    MOV      r0,#0x7ff
        0x000019ce:    f8c10208    ....    STR      r0,[r1,#0x208]
        0x000019d2:    463a        :F      MOV      r2,r7
        0x000019d4:    4620         F      MOV      r0,r4
        0x000019d6:    9905        ..      LDR      r1,[sp,#0x14]
        0x000019d8:    f7fffc0a    ....    BL       am_hal_iom_fifo_write ; 0x11f0
        0x000019dc:    b1d8        ..      CBZ      r0,0x1a16 ; am_hal_iom_i2c_write_nb + 266
        0x000019de:    4813        .H      LDR      r0,[pc,#76] ; [0x1a2c] = 0x100006e0
        0x000019e0:    eb040284    ....    ADD      r2,r4,r4,LSL #2
        0x000019e4:    4633        3F      MOV      r3,r6
        0x000019e6:    f840a022    @.".    STR      r10,[r0,r2,LSL #2]
        0x000019ea:    eb000082    ....    ADD      r0,r0,r2,LSL #2
        0x000019ee:    9905        ..      LDR      r1,[sp,#0x14]
        0x000019f0:    1bf2        ..      SUBS     r2,r6,r7
        0x000019f2:    f8c0b010    ....    STR      r11,[r0,#0x10]
        0x000019f6:    6082        .`      STR      r2,[r0,#8]
        0x000019f8:    f0270203    '...    BIC      r2,r7,#3
        0x000019fc:    4411        .D      ADD      r1,r1,r2
        0x000019fe:    6041        A`      STR      r1,[r0,#4]
        0x00001a00:    f8cd9000    ....    STR      r9,[sp,#0]
        0x00001a04:    4621        !F      MOV      r1,r4
        0x00001a06:    2000        .       MOVS     r0,#0
        0x00001a08:    9a04        ..      LDR      r2,[sp,#0x10]
        0x00001a0a:    f7fffc65    ..e.    BL       am_hal_iom_i2c_cmd_run ; 0x12d8
        0x00001a0e:    0005        ..      MOVS     r5,r0
        0x00001a10:    bf18        ..      IT       NE
        0x00001a12:    f8085004    ...P    STRBNE   r5,[r8,r4]
        0x00001a16:    4628        (F      MOV      r0,r5
        0x00001a18:    b007        ..      ADD      sp,sp,#0x1c
        0x00001a1a:    e8bd8ff0    ....    POP      {r4-r11,pc}
    $d
        0x00001a1e:    0000        ..      DCW    0
        0x00001a20:    100000b4    ....    DCD    268435636
        0x00001a24:    100000bb    ....    DCD    268435643
        0x00001a28:    0000427c    |B..    DCD    17020
        0x00001a2c:    100006e0    ....    DCD    268437216
    $t
    i.am_hal_iom_i2c_write_nq
    am_hal_iom_i2c_write_nq
        0x00001a30:    e92d4fff    -..O    PUSH     {r0-r11,lr}
        0x00001a34:    b083        ..      SUB      sp,sp,#0xc
        0x00001a36:    461f        .F      MOV      r7,r3
        0x00001a38:    f8ddb040    ..@.    LDR      r11,[sp,#0x40]
        0x00001a3c:    4604        .F      MOV      r4,r0
        0x00001a3e:    2806        .(      CMP      r0,#6
        0x00001a40:    bf38        8.      IT       CC
        0x00001a42:    4858        XH      LDRCC    r0,[pc,#352] ; [0x1ba4] = 0x100000b4
        0x00001a44:    bf82        ..      ITTT     HI
        0x00001a46:    2002        .       MOVHI    r0,#2
        0x00001a48:    b007        ..      ADDHI    sp,sp,#0x1c
        0x00001a4a:    e8bd8ff0    ....    POPHI    {r4-r11,pc}
        0x00001a4e:    d202        ..      BCS      0x1a56 ; am_hal_iom_i2c_write_nq + 38
        0x00001a50:    5d01        .]      LDRB     r1,[r0,r4]
        0x00001a52:    2900        .)      CMP      r1,#0
        0x00001a54:    d1fc        ..      BNE      0x1a50 ; am_hal_iom_i2c_write_nq + 32
        0x00001a56:    f8df8150    ..P.    LDR      r8,[pc,#336] ; [0x1ba8] = 0x100000bb
        0x00001a5a:    f04f0200    O...    MOV      r2,#0
        0x00001a5e:    f8082004    ...     STRB     r2,[r8,r4]
        0x00001a62:    b127        '.      CBZ      r7,0x1a6e ; am_hal_iom_i2c_write_nq + 62
        0x00001a64:    2c06        .,      CMP      r4,#6
        0x00001a66:    d008        ..      BEQ      0x1a7a ; am_hal_iom_i2c_write_nq + 74
        0x00001a68:    f5b77f80    ....    CMP      r7,#0x100
        0x00001a6c:    d327        '.      BCC      0x1abe ; am_hal_iom_i2c_write_nq + 142
        0x00001a6e:    2003        .       MOVS     r0,#3
        0x00001a70:    f8080004    ....    STRB     r0,[r8,r4]
        0x00001a74:    b007        ..      ADD      sp,sp,#0x1c
        0x00001a76:    e8bd8ff0    ....    POP      {r4-r11,pc}
        0x00001a7a:    9804        ..      LDR      r0,[sp,#0x10]
        0x00001a7c:    f01b4f80    ...O    TST      r11,#0x40000000
        0x00001a80:    f3cb7100    ...q    UBFX     r1,r11,#28,#1
        0x00001a84:    ea4f0040    O.@.    LSL      r0,r0,#1
        0x00001a88:    d008        ..      BEQ      0x1a9c ; am_hal_iom_i2c_write_nq + 108
        0x00001a8a:    e9cd2100    ...!    STRD     r2,r1,[sp,#0]
        0x00001a8e:    b2c0        ..      UXTB     r0,r0
        0x00001a90:    2300        .#      MOVS     r3,#0
        0x00001a92:    4639        9F      MOV      r1,r7
        0x00001a94:    9a05        ..      LDR      r2,[sp,#0x14]
        0x00001a96:    f7fff959    ..Y.    BL       am_hal_i2c_bit_bang_send ; 0xd4c
        0x00001a9a:    e009        ..      B        0x1ab0 ; am_hal_iom_i2c_write_nq + 128
        0x00001a9c:    2201        ."      MOVS     r2,#1
        0x00001a9e:    e9cd2100    ...!    STRD     r2,r1,[sp,#0]
        0x00001aa2:    b2c0        ..      UXTB     r0,r0
        0x00001aa4:    f3cb2307    ...#    UBFX     r3,r11,#8,#8
        0x00001aa8:    4639        9F      MOV      r1,r7
        0x00001aaa:    9a05        ..      LDR      r2,[sp,#0x14]
        0x00001aac:    f7fff94e    ..N.    BL       am_hal_i2c_bit_bang_send ; 0xd4c
        0x00001ab0:    493e        >I      LDR      r1,[pc,#248] ; [0x1bac] = 0x427c
        0x00001ab2:    5c08        .\      LDRB     r0,[r1,r0]
        0x00001ab4:    f8880006    ....    STRB     r0,[r8,#6]
        0x00001ab8:    b007        ..      ADD      sp,sp,#0x1c
        0x00001aba:    e8bd8ff0    ....    POP      {r4-r11,pc}
        0x00001abe:    0320         .      LSLS     r0,r4,#12
        0x00001ac0:    f10045a0    ...E    ADD      r5,r0,#0x50000000
        0x00001ac4:    f5054580    ...E    ADD      r5,r5,#0x4000
        0x00001ac8:    f8d5011c    ....    LDR      r0,[r5,#0x11c]
        0x00001acc:    f0100f08    ....    TST      r0,#8
        0x00001ad0:    bf0c        ..      ITE      EQ
        0x00001ad2:    2680        .&      MOVEQ    r6,#0x80
        0x00001ad4:    2640        @&      MOVNE    r6,#0x40
        0x00001ad6:    f8d59200    ....    LDR      r9,[r5,#0x200]
        0x00001ada:    2000        .       MOVS     r0,#0
        0x00001adc:    f8c50200    ....    STR      r0,[r5,#0x200]
        0x00001ae0:    f2407aff    @..z    MOV      r10,#0x7ff
        0x00001ae4:    f8c5a208    ....    STR      r10,[r5,#0x208]
        0x00001ae8:    42b7        .B      CMP      r7,r6
        0x00001aea:    bf98        ..      IT       LS
        0x00001aec:    461e        .F      MOVLS    r6,r3
        0x00001aee:    4632        2F      MOV      r2,r6
        0x00001af0:    4620         F      MOV      r0,r4
        0x00001af2:    9905        ..      LDR      r1,[sp,#0x14]
        0x00001af4:    f7fffb7c    ..|.    BL       am_hal_iom_fifo_write ; 0x11f0
        0x00001af8:    463b        ;F      MOV      r3,r7
        0x00001afa:    f8cdb000    ....    STR      r11,[sp,#0]
        0x00001afe:    4621        !F      MOV      r1,r4
        0x00001b00:    2000        .       MOVS     r0,#0
        0x00001b02:    9a04        ..      LDR      r2,[sp,#0x10]
        0x00001b04:    f7fffbe8    ....    BL       am_hal_iom_i2c_cmd_run ; 0x12d8
        0x00001b08:    b140        @.      CBZ      r0,0x1b1c ; am_hal_iom_i2c_write_nq + 236
        0x00001b0a:    f8080004    ....    STRB     r0,[r8,r4]
        0x00001b0e:    f8c5a208    ....    STR      r10,[r5,#0x208]
        0x00001b12:    f8c59200    ....    STR      r9,[r5,#0x200]
        0x00001b16:    b007        ..      ADD      sp,sp,#0x1c
        0x00001b18:    e8bd8ff0    ....    POP      {r4-r11,pc}
        0x00001b1c:    9805        ..      LDR      r0,[sp,#0x14]
        0x00001b1e:    f0260103    &...    BIC      r1,r6,#3
        0x00001b22:    1bbf        ..      SUBS     r7,r7,r6
        0x00001b24:    eb010b00    ....    ADD      r11,r1,r0
        0x00001b28:    e01b        ..      B        0x1b62 ; am_hal_iom_i2c_write_nq + 306
        0x00001b2a:    2c06        .,      CMP      r4,#6
        0x00001b2c:    bf28        (.      IT       CS
        0x00001b2e:    2600        .&      MOVCS    r6,#0
        0x00001b30:    d20b        ..      BCS      0x1b4a ; am_hal_iom_i2c_write_nq + 282
        0x00001b32:    f8d5011c    ....    LDR      r0,[r5,#0x11c]
        0x00001b36:    f0100f08    ....    TST      r0,#8
        0x00001b3a:    bf0c        ..      ITE      EQ
        0x00001b3c:    2080        .       MOVEQ    r0,#0x80
        0x00001b3e:    2040        @       MOVNE    r0,#0x40
        0x00001b40:    f8d51100    ....    LDR      r1,[r5,#0x100]
        0x00001b44:    1a40        @.      SUBS     r0,r0,r1
        0x00001b46:    f00006fc    ....    AND      r6,r0,#0xfc
        0x00001b4a:    42b7        .B      CMP      r7,r6
        0x00001b4c:    bf98        ..      IT       LS
        0x00001b4e:    463e        >F      MOVLS    r6,r7
        0x00001b50:    4632        2F      MOV      r2,r6
        0x00001b52:    4659        YF      MOV      r1,r11
        0x00001b54:    4620         F      MOV      r0,r4
        0x00001b56:    f7fffb4b    ..K.    BL       am_hal_iom_fifo_write ; 0x11f0
        0x00001b5a:    f0260003    &...    BIC      r0,r6,#3
        0x00001b5e:    1bbf        ..      SUBS     r7,r7,r6
        0x00001b60:    4483        .D      ADD      r11,r11,r0
        0x00001b62:    b127        '.      CBZ      r7,0x1b6e ; am_hal_iom_i2c_write_nq + 318
        0x00001b64:    f8d50204    ....    LDR      r0,[r5,#0x204]
        0x00001b68:    f0100f01    ....    TST      r0,#1
        0x00001b6c:    d0dd        ..      BEQ      0x1b2a ; am_hal_iom_i2c_write_nq + 250
        0x00001b6e:    4810        .H      LDR      r0,[pc,#64] ; [0x1bb0] = 0x50004204
        0x00001b70:    2301        .#      MOVS     r3,#1
        0x00001b72:    eb003104    ...1    ADD      r1,r0,r4,LSL #12
        0x00001b76:    480f        .H      LDR      r0,[pc,#60] ; [0x1bb4] = 0x10000758
        0x00001b78:    461a        .F      MOV      r2,r3
        0x00001b7a:    f8500024    P.$.    LDR      r0,[r0,r4,LSL #2]
        0x00001b7e:    f7feff41    ..A.    BL       am_hal_flash_delay_status_change ; 0xa04
        0x00001b82:    2801        .(      CMP      r0,#1
        0x00001b84:    bf18        ..      IT       NE
        0x00001b86:    2001        .       MOVNE    r0,#1
        0x00001b88:    d103        ..      BNE      0x1b92 ; am_hal_iom_i2c_write_nq + 354
        0x00001b8a:    2100        .!      MOVS     r1,#0
        0x00001b8c:    4620         F      MOV      r0,r4
        0x00001b8e:    f001fef3    ....    BL       internal_iom_get_int_err ; 0x3978
        0x00001b92:    f8080004    ....    STRB     r0,[r8,r4]
        0x00001b96:    f8c5a208    ....    STR      r10,[r5,#0x208]
        0x00001b9a:    f8c59200    ....    STR      r9,[r5,#0x200]
        0x00001b9e:    b007        ..      ADD      sp,sp,#0x1c
        0x00001ba0:    e8bd8ff0    ....    POP      {r4-r11,pc}
    $d
        0x00001ba4:    100000b4    ....    DCD    268435636
        0x00001ba8:    100000bb    ....    DCD    268435643
        0x00001bac:    0000427c    |B..    DCD    17020
        0x00001bb0:    50004204    .B.P    DCD    1342194180
        0x00001bb4:    10000758    X...    DCD    268437336
    $t
    i.am_hal_iom_pwrctrl_enable
    am_hal_iom_pwrctrl_enable
        0x00001bb8:    b510        ..      PUSH     {r4,lr}
        0x00001bba:    4604        .F      MOV      r4,r0
        0x00001bbc:    2806        .(      CMP      r0,#6
        0x00001bbe:    d305        ..      BCC      0x1bcc ; am_hal_iom_pwrctrl_enable + 20
        0x00001bc0:    a205        ..      ADR      r2,{pc}+0x18 ; 0x1bd8
        0x00001bc2:    f24021d1    @..!    MOV      r1,#0x2d1
        0x00001bc6:    a011        ..      ADR      r0,{pc}+0x46 ; 0x1c0c
        0x00001bc8:    f7feff14    ....    BL       am_hal_debug_error ; 0x9f4
        0x00001bcc:    2002        .       MOVS     r0,#2
        0x00001bce:    40a0        .@      LSLS     r0,r0,r4
        0x00001bd0:    e8bd4010    ...@    POP      {r4,lr}
        0x00001bd4:    f000bf94    ....    B.W      am_hal_pwrctrl_periph_enable ; 0x2b00
    $d
        0x00001bd8:    69797254    Tryi    DCD    1769566804
        0x00001bdc:    7420676e    ng t    DCD    1948280686
        0x00001be0:    6e65206f    o en    DCD    1852121199
        0x00001be4:    656c6261    able    DCD    1701601889
        0x00001be8:    206e6120     an     DCD    544104736
        0x00001bec:    204d4f49    IOM     DCD    541937481
        0x00001bf0:    75646f6d    modu    DCD    1969516397
        0x00001bf4:    7420656c    le t    DCD    1948280172
        0x00001bf8:    20746168    hat     DCD    544498024
        0x00001bfc:    73656f64    does    DCD    1936027492
        0x00001c00:    2074276e    n't     DCD    544483182
        0x00001c04:    73697865    exis    DCD    1936291941
        0x00001c08:    00002e74    t...    DCD    11892
        0x00001c0c:    612f2e2e    ../a    DCD    1630481966
        0x00001c10:    61685f6d    m_ha    DCD    1634230125
        0x00001c14:    6f695f6c    l_io    DCD    1869176684
        0x00001c18:    00632e6d    m.c.    DCD    6499949
    $t
    i.am_hal_iom_sleeping_queue_flush
    am_hal_iom_sleeping_queue_flush
        0x00001c1c:    e92d41f0    -..A    PUSH     {r4-r8,lr}
        0x00001c20:    2501        .%      MOVS     r5,#1
        0x00001c22:    4604        .F      MOV      r4,r0
        0x00001c24:    2806        .(      CMP      r0,#6
        0x00001c26:    bf28        (.      IT       CS
        0x00001c28:    e8bd81f0    ....    POPCS    {r4-r8,pc}
        0x00001c2c:    4f0f        .O      LDR      r7,[pc,#60] ; [0x1c6c] = 0x100000b4
        0x00001c2e:    4810        .H      LDR      r0,[pc,#64] ; [0x1c70] = 0x10000770
        0x00001c30:    eb040144    ..D.    ADD      r1,r4,r4,LSL #1
        0x00001c34:    eb0006c1    ....    ADD      r6,r0,r1,LSL #3
        0x00001c38:    f7fefaaa    ....    BL       am_hal_interrupt_master_disable ; 0x190
        0x00001c3c:    4680        .F      MOV      r8,r0
        0x00001c3e:    5d38        8]      LDRB     r0,[r7,r4]
        0x00001c40:    2800        .(      CMP      r0,#0
        0x00001c42:    bf04        ..      ITT      EQ
        0x00001c44:    68b0        .h      LDREQ    r0,[r6,#8]
        0x00001c46:    2800        .(      CMPEQ    r0,#0
        0x00001c48:    d00a        ..      BEQ      0x1c60 ; am_hal_iom_sleeping_queue_flush + 68
        0x00001c4a:    f04f0000    O...    MOV      r0,#0
        0x00001c4e:    f001f819    ....    BL       am_hal_sysctrl_sleep ; 0x2c84
        0x00001c52:    4640        @F      MOV      r0,r8
        0x00001c54:    f7fefaa0    ....    BL       am_hal_interrupt_master_set ; 0x198
        0x00001c58:    2d00        .-      CMP      r5,#0
        0x00001c5a:    d1ed        ..      BNE      0x1c38 ; am_hal_iom_sleeping_queue_flush + 28
        0x00001c5c:    e8bd81f0    ....    POP      {r4-r8,pc}
        0x00001c60:    4640        @F      MOV      r0,r8
        0x00001c62:    e8bd41f0    ...A    POP      {r4-r8,lr}
        0x00001c66:    f7feba97    ....    B        am_hal_interrupt_master_set ; 0x198
    $d
        0x00001c6a:    0000        ..      DCW    0
        0x00001c6c:    100000b4    ....    DCD    268435636
        0x00001c70:    10000770    p...    DCD    268437360
    $t
    i.am_hal_iom_spi_read
    am_hal_iom_spi_read
        0x00001c74:    2806        .(      CMP      r0,#6
        0x00001c76:    bf24        $.      ITT      CS
        0x00001c78:    2002        .       MOVCS    r0,#2
        0x00001c7a:    4770        pG      BXCS     lr
        0x00001c7c:    e92d4ff0    -..O    PUSH     {r4-r11,lr}
        0x00001c80:    4604        .F      MOV      r4,r0
        0x00001c82:    ea4f3c04    O..<    LSL      r12,r4,#12
        0x00001c86:    b08b        ..      SUB      sp,sp,#0x2c
        0x00001c88:    f10c4ca0    ...L    ADD      r12,r12,#0x50000000
        0x00001c8c:    f50c4c80    ...L    ADD      r12,r12,#0x4000
        0x00001c90:    f24070ff    @..p    MOV      r0,#0x7ff
        0x00001c94:    9f14        ..      LDR      r7,[sp,#0x50]
        0x00001c96:    f8cc0208    ....    STR      r0,[r12,#0x208]
        0x00001c9a:    4e30        0N      LDR      r6,[pc,#192] ; [0x1d5c] = 0x100000bb
        0x00001c9c:    2000        .       MOVS     r0,#0
        0x00001c9e:    2b00        .+      CMP      r3,#0
        0x00001ca0:    5530        0U      STRB     r0,[r6,r4]
        0x00001ca2:    bf18        ..      IT       NE
        0x00001ca4:    f5b35f80    ..._    CMPNE    r3,#0x1000
        0x00001ca8:    bf21        !.      ITTTT    CS
        0x00001caa:    2003        .       MOVCS    r0,#3
        0x00001cac:    5530        0U      STRBCS   r0,[r6,r4]
        0x00001cae:    b00b        ..      ADDCS    sp,sp,#0x2c
        0x00001cb0:    e8bd8ff0    ....    POPCS    {r4-r11,pc}
        0x00001cb4:    eb040c44    ..D.    ADD      r12,r4,r4,LSL #1
        0x00001cb8:    4829        )H      LDR      r0,[pc,#164] ; [0x1d60] = 0x10000770
        0x00001cba:    eb0008cc    ....    ADD      r8,r0,r12,LSL #3
        0x00001cbe:    f8d80014    ....    LDR      r0,[r8,#0x14]
        0x00001cc2:    2800        .(      CMP      r0,#0
        0x00001cc4:    d043        C.      BEQ      0x1d4e ; am_hal_iom_spi_read + 218
        0x00001cc6:    468a        .F      MOV      r10,r1
        0x00001cc8:    4691        .F      MOV      r9,r2
        0x00001cca:    461d        .F      MOV      r5,r3
        0x00001ccc:    f04f0b00    O...    MOV      r11,#0
        0x00001cd0:    f7fefa5e    ..^.    BL       am_hal_interrupt_master_disable ; 0x190
        0x00001cd4:    9002        ..      STR      r0,[sp,#8]
        0x00001cd6:    4823        #H      LDR      r0,[pc,#140] ; [0x1d64] = 0x100000b4
        0x00001cd8:    5d00        .]      LDRB     r0,[r0,r4]
        0x00001cda:    2800        .(      CMP      r0,#0
        0x00001cdc:    bf04        ..      ITT      EQ
        0x00001cde:    f8d80008    ....    LDREQ    r0,[r8,#8]
        0x00001ce2:    2800        .(      CMPEQ    r0,#0
        0x00001ce4:    d014        ..      BEQ      0x1d10 ; am_hal_iom_spi_read + 156
        0x00001ce6:    f04f0001    O...    MOV      r0,#1
        0x00001cea:    f8cdb024    ..$.    STR      r11,[sp,#0x24]
        0x00001cee:    e9cd0403    ....    STRD     r0,r4,[sp,#0xc]
        0x00001cf2:    e9cd5707    ...W    STRD     r5,r7,[sp,#0x1c]
        0x00001cf6:    e9cda905    ....    STRD     r10,r9,[sp,#0x14]
        0x00001cfa:    4640        @F      MOV      r0,r8
        0x00001cfc:    f04f0201    O...    MOV      r2,#1
        0x00001d00:    a903        ..      ADD      r1,sp,#0xc
        0x00001d02:    f000ff5d    ..].    BL       am_hal_queue_item_add ; 0x2bc0
        0x00001d06:    2800        .(      CMP      r0,#0
        0x00001d08:    bf08        ..      IT       EQ
        0x00001d0a:    2508        .%      MOVEQ    r5,#8
        0x00001d0c:    d00a        ..      BEQ      0x1d24 ; am_hal_iom_spi_read + 176
        0x00001d0e:    e013        ..      B        0x1d38 ; am_hal_iom_spi_read + 196
        0x00001d10:    e9cd7b00    ...{    STRD     r7,r11,[sp,#0]
        0x00001d14:    462b        +F      MOV      r3,r5
        0x00001d16:    464a        JF      MOV      r2,r9
        0x00001d18:    4651        QF      MOV      r1,r10
        0x00001d1a:    4620         F      MOV      r0,r4
        0x00001d1c:    f000f826    ..&.    BL       am_hal_iom_spi_read_nb ; 0x1d6c
        0x00001d20:    0005        ..      MOVS     r5,r0
        0x00001d22:    d009        ..      BEQ      0x1d38 ; am_hal_iom_spi_read + 196
        0x00001d24:    5535        5U      STRB     r5,[r6,r4]
        0x00001d26:    9802        ..      LDR      r0,[sp,#8]
        0x00001d28:    f7fefa36    ..6.    BL       am_hal_interrupt_master_set ; 0x198
        0x00001d2c:    0028        (.      MOVS     r0,r5
        0x00001d2e:    bf1c        ..      ITT      NE
        0x00001d30:    b00b        ..      ADDNE    sp,sp,#0x2c
        0x00001d32:    e8bd8ff0    ....    POPNE    {r4-r11,pc}
        0x00001d36:    e002        ..      B        0x1d3e ; am_hal_iom_spi_read + 202
        0x00001d38:    9802        ..      LDR      r0,[sp,#8]
        0x00001d3a:    f7fefa2d    ..-.    BL       am_hal_interrupt_master_set ; 0x198
        0x00001d3e:    490a        .I      LDR      r1,[pc,#40] ; [0x1d68] = 0x100000b0
        0x00001d40:    4620         F      MOV      r0,r4
        0x00001d42:    6809        .h      LDR      r1,[r1,#0]
        0x00001d44:    4788        .G      BLX      r1
        0x00001d46:    5d30        0]      LDRB     r0,[r6,r4]
        0x00001d48:    b00b        ..      ADD      sp,sp,#0x2c
        0x00001d4a:    e8bd8ff0    ....    POP      {r4-r11,pc}
        0x00001d4e:    4620         F      MOV      r0,r4
        0x00001d50:    9700        ..      STR      r7,[sp,#0]
        0x00001d52:    f000f89d    ....    BL       am_hal_iom_spi_read_nq ; 0x1e90
        0x00001d56:    b00b        ..      ADD      sp,sp,#0x2c
        0x00001d58:    e8bd8ff0    ....    POP      {r4-r11,pc}
    $d
        0x00001d5c:    100000bb    ....    DCD    268435643
        0x00001d60:    10000770    p...    DCD    268437360
        0x00001d64:    100000b4    ....    DCD    268435636
        0x00001d68:    100000b0    ....    DCD    268435632
    $t
    i.am_hal_iom_spi_read_nb
    am_hal_iom_spi_read_nb
        0x00001d6c:    2806        .(      CMP      r0,#6
        0x00001d6e:    bf24        $.      ITT      CS
        0x00001d70:    2002        .       MOVCS    r0,#2
        0x00001d72:    4770        pG      BXCS     lr
        0x00001d74:    e92d4fff    -..O    PUSH     {r0-r11,lr}
        0x00001d78:    b081        ..      SUB      sp,sp,#4
        0x00001d7a:    f8df90f4    ....    LDR      r9,[pc,#244] ; [0x1e70] = 0x100000b4
        0x00001d7e:    9d0e        ..      LDR      r5,[sp,#0x38]
        0x00001d80:    461e        .F      MOV      r6,r3
        0x00001d82:    4604        .F      MOV      r4,r0
        0x00001d84:    f8190004    ....    LDRB     r0,[r9,r4]
        0x00001d88:    2800        .(      CMP      r0,#0
        0x00001d8a:    d1fb        ..      BNE      0x1d84 ; am_hal_iom_spi_read_nb + 24
        0x00001d8c:    f8df80e4    ....    LDR      r8,[pc,#228] ; [0x1e74] = 0x100000bb
        0x00001d90:    2e00        ..      CMP      r6,#0
        0x00001d92:    f8080004    ....    STRB     r0,[r8,r4]
        0x00001d96:    9000        ..      STR      r0,[sp,#0]
        0x00001d98:    bf18        ..      IT       NE
        0x00001d9a:    f5b65f80    ..._    CMPNE    r6,#0x1000
        0x00001d9e:    bf21        !.      ITTTT    CS
        0x00001da0:    2003        .       MOVCS    r0,#3
        0x00001da2:    f8080004    ....    STRBCS   r0,[r8,r4]
        0x00001da6:    b005        ..      ADDCS    sp,sp,#0x14
        0x00001da8:    e8bd8ff0    ....    POPCS    {r4-r11,pc}
        0x00001dac:    2101        .!      MOVS     r1,#1
        0x00001dae:    f8091004    ....    STRB     r1,[r9,r4]
        0x00001db2:    0323        #.      LSLS     r3,r4,#12
        0x00001db4:    f10347a0    ...G    ADD      r7,r3,#0x50000000
        0x00001db8:    f5074780    ...G    ADD      r7,r7,#0x4000
        0x00001dbc:    f24072ff    @..r    MOV      r2,#0x7ff
        0x00001dc0:    f8c72208    ..."    STR      r2,[r7,#0x208]
        0x00001dc4:    2c04        .,      CMP      r4,#4
        0x00001dc6:    bf08        ..      IT       EQ
        0x00001dc8:    f0154f80    ...O    TSTEQ    r5,#0x40000000
        0x00001dcc:    d12b        +.      BNE      0x1e26 ; am_hal_iom_spi_read_nb + 186
        0x00001dce:    4a2a        *J      LDR      r2,[pc,#168] ; [0x1e78] = 0x40020000
        0x00001dd0:    68d2        .h      LDR      r2,[r2,#0xc]
        0x00001dd2:    b2d2        ..      UXTB     r2,r2
        0x00001dd4:    2a20         *      CMP      r2,#0x20
        0x00001dd6:    d126        &.      BNE      0x1e26 ; am_hal_iom_spi_read_nb + 186
        0x00001dd8:    f8dfa0a0    ....    LDR      r10,[pc,#160] ; [0x1e7c] = 0x50008000
        0x00001ddc:    f8dab200    ....    LDR      r11,[r10,#0x200]
        0x00001de0:    f8ca0200    ....    STR      r0,[r10,#0x200]
        0x00001de4:    e9dd0102    ....    LDRD     r0,r1,[sp,#8]
        0x00001de8:    f0455380    E..S    ORR      r3,r5,#0x10000000
        0x00001dec:    2200        ."      MOVS     r2,#0
        0x00001dee:    f000fac5    ....    BL       am_hal_iom_workaround_word_write ; 0x237c
        0x00001df2:    4824        $H      LDR      r0,[pc,#144] ; [0x1e84] = 0x10000758
        0x00001df4:    2301        .#      MOVS     r3,#1
        0x00001df6:    f0454580    E..E    ORR      r5,r5,#0x40000000
        0x00001dfa:    4921        !I      LDR      r1,[pc,#132] ; [0x1e80] = 0x50008204
        0x00001dfc:    6900        .i      LDR      r0,[r0,#0x10]
        0x00001dfe:    461a        .F      MOV      r2,r3
        0x00001e00:    f7fefe00    ....    BL       am_hal_flash_delay_status_change ; 0xa04
        0x00001e04:    2801        .(      CMP      r0,#1
        0x00001e06:    f04f0001    O...    MOV      r0,#1
        0x00001e0a:    bf1e        ..      ITTT     NE
        0x00001e0c:    f8880004    ....    STRBNE   r0,[r8,#4]
        0x00001e10:    b005        ..      ADDNE    sp,sp,#0x14
        0x00001e12:    e8bd8ff0    ....    POPNE    {r4-r11,pc}
        0x00001e16:    f8890004    ....    STRB     r0,[r9,#4]
        0x00001e1a:    f24070ff    @..p    MOV      r0,#0x7ff
        0x00001e1e:    f8ca0208    ....    STR      r0,[r10,#0x208]
        0x00001e22:    f8cab200    ....    STR      r11,[r10,#0x200]
        0x00001e26:    4818        .H      LDR      r0,[pc,#96] ; [0x1e88] = 0x100006e0
        0x00001e28:    eb040184    ....    ADD      r1,r4,r4,LSL #2
        0x00001e2c:    2202        ."      MOVS     r2,#2
        0x00001e2e:    f8402021    @.!     STR      r2,[r0,r1,LSL #2]
        0x00001e32:    eb000081    ....    ADD      r0,r0,r1,LSL #2
        0x00001e36:    9a03        ..      LDR      r2,[sp,#0xc]
        0x00001e38:    e9c02601    ...&    STRD     r2,r6,[r0,#4]
        0x00001e3c:    990f        ..      LDR      r1,[sp,#0x3c]
        0x00001e3e:    f4066270    ..pb    AND      r2,r6,#0xf00
        0x00001e42:    e9c05103    ...Q    STRD     r5,r1,[r0,#0xc]
        0x00001e46:    f04f4000    O..@    MOV      r0,#0x80000000
        0x00001e4a:    ea4030c2    @..0    ORR      r0,r0,r2,LSL #15
        0x00001e4e:    b2f2        ..      UXTB     r2,r6
        0x00001e50:    4310        .C      ORRS     r0,r0,r2
        0x00001e52:    9902        ..      LDR      r1,[sp,#8]
        0x00001e54:    f44f22e0    O.."    MOV      r2,#0x70000
        0x00001e58:    ea024101    ...A    AND      r1,r2,r1,LSL #16
        0x00001e5c:    4308        .C      ORRS     r0,r0,r1
        0x00001e5e:    490b        .I      LDR      r1,[pc,#44] ; [0x1e8c] = 0x5c00ff00
        0x00001e60:    4029        )@      ANDS     r1,r1,r5
        0x00001e62:    4308        .C      ORRS     r0,r0,r1
        0x00001e64:    f8c70110    ....    STR      r0,[r7,#0x110]
        0x00001e68:    9800        ..      LDR      r0,[sp,#0]
        0x00001e6a:    b005        ..      ADD      sp,sp,#0x14
        0x00001e6c:    e8bd8ff0    ....    POP      {r4-r11,pc}
    $d
        0x00001e70:    100000b4    ....    DCD    268435636
        0x00001e74:    100000bb    ....    DCD    268435643
        0x00001e78:    40020000    ...@    DCD    1073872896
        0x00001e7c:    50008000    ...P    DCD    1342210048
        0x00001e80:    50008204    ...P    DCD    1342210564
        0x00001e84:    10000758    X...    DCD    268437336
        0x00001e88:    100006e0    ....    DCD    268437216
        0x00001e8c:    5c00ff00    ...\    DCD    1543569152
    $t
    i.am_hal_iom_spi_read_nq
    am_hal_iom_spi_read_nq
        0x00001e90:    e92d5fff    -.._    PUSH     {r0-r12,lr}
        0x00001e94:    461d        .F      MOV      r5,r3
        0x00001e96:    9e0e        ..      LDR      r6,[sp,#0x38]
        0x00001e98:    4691        .F      MOV      r9,r2
        0x00001e9a:    4604        .F      MOV      r4,r0
        0x00001e9c:    f04f0a00    O...    MOV      r10,#0
        0x00001ea0:    2806        .(      CMP      r0,#6
        0x00001ea2:    bf29        ).      ITETT    CS
        0x00001ea4:    2002        .       MOVCS    r0,#2
        0x00001ea6:    4853        SH      LDRCC    r0,[pc,#332] ; [0x1ff4] = 0x100000b4
        0x00001ea8:    b004        ..      ADDCS    sp,sp,#0x10
        0x00001eaa:    e8bd9ff0    ....    POPCS    {r4-r12,pc}
        0x00001eae:    5d01        .]      LDRB     r1,[r0,r4]
        0x00001eb0:    2900        .)      CMP      r1,#0
        0x00001eb2:    d1fc        ..      BNE      0x1eae ; am_hal_iom_spi_read_nq + 30
        0x00001eb4:    f8df8140    ..@.    LDR      r8,[pc,#320] ; [0x1ff8] = 0x100000bb
        0x00001eb8:    2000        .       MOVS     r0,#0
        0x00001eba:    2d00        .-      CMP      r5,#0
        0x00001ebc:    f8080004    ....    STRB     r0,[r8,r4]
        0x00001ec0:    bf18        ..      IT       NE
        0x00001ec2:    f5b55f80    ..._    CMPNE    r5,#0x1000
        0x00001ec6:    bf21        !.      ITTTT    CS
        0x00001ec8:    2003        .       MOVCS    r0,#3
        0x00001eca:    f8080004    ....    STRBCS   r0,[r8,r4]
        0x00001ece:    b004        ..      ADDCS    sp,sp,#0x10
        0x00001ed0:    e8bd9ff0    ....    POPCS    {r4-r12,pc}
        0x00001ed4:    0321        !.      LSLS     r1,r4,#12
        0x00001ed6:    f10147a0    ...G    ADD      r7,r1,#0x50000000
        0x00001eda:    f5074780    ...G    ADD      r7,r7,#0x4000
        0x00001ede:    f8d7b200    ....    LDR      r11,[r7,#0x200]
        0x00001ee2:    f8c70200    ....    STR      r0,[r7,#0x200]
        0x00001ee6:    f24070ff    @..p    MOV      r0,#0x7ff
        0x00001eea:    f8c70208    ....    STR      r0,[r7,#0x208]
        0x00001eee:    2c04        .,      CMP      r4,#4
        0x00001ef0:    bf08        ..      IT       EQ
        0x00001ef2:    f0164f80    ...O    TSTEQ    r6,#0x40000000
        0x00001ef6:    d129        ).      BNE      0x1f4c ; am_hal_iom_spi_read_nq + 188
        0x00001ef8:    4840        @H      LDR      r0,[pc,#256] ; [0x1ffc] = 0x40020000
        0x00001efa:    68c0        .h      LDR      r0,[r0,#0xc]
        0x00001efc:    b2c0        ..      UXTB     r0,r0
        0x00001efe:    2820         (      CMP      r0,#0x20
        0x00001f00:    d124        $.      BNE      0x1f4c ; am_hal_iom_spi_read_nq + 188
        0x00001f02:    f0465380    F..S    ORR      r3,r6,#0x10000000
        0x00001f06:    2200        ."      MOVS     r2,#0
        0x00001f08:    4649        IF      MOV      r1,r9
        0x00001f0a:    9801        ..      LDR      r0,[sp,#4]
        0x00001f0c:    f000fa36    ..6.    BL       am_hal_iom_workaround_word_write ; 0x237c
        0x00001f10:    483c        <H      LDR      r0,[pc,#240] ; [0x2004] = 0x10000758
        0x00001f12:    2301        .#      MOVS     r3,#1
        0x00001f14:    f0464680    F..F    ORR      r6,r6,#0x40000000
        0x00001f18:    4939        9I      LDR      r1,[pc,#228] ; [0x2000] = 0x50008204
        0x00001f1a:    6900        .i      LDR      r0,[r0,#0x10]
        0x00001f1c:    461a        .F      MOV      r2,r3
        0x00001f1e:    f7fefd71    ..q.    BL       am_hal_flash_delay_status_change ; 0xa04
        0x00001f22:    4939        9I      LDR      r1,[pc,#228] ; [0x2008] = 0x50008000
        0x00001f24:    2801        .(      CMP      r0,#1
        0x00001f26:    d00b        ..      BEQ      0x1f40 ; am_hal_iom_spi_read_nq + 176
        0x00001f28:    2001        .       MOVS     r0,#1
        0x00001f2a:    f8880004    ....    STRB     r0,[r8,#4]
        0x00001f2e:    f24072ff    @..r    MOV      r2,#0x7ff
        0x00001f32:    f8c12208    ..."    STR      r2,[r1,#0x208]
        0x00001f36:    f8c1b200    ....    STR      r11,[r1,#0x200]
        0x00001f3a:    b004        ..      ADD      sp,sp,#0x10
        0x00001f3c:    e8bd9ff0    ....    POP      {r4-r12,pc}
        0x00001f40:    f8d10208    ....    LDR      r0,[r1,#0x208]
        0x00001f44:    f0400001    @...    ORR      r0,r0,#1
        0x00001f48:    f8c10208    ....    STR      r0,[r1,#0x208]
        0x00001f4c:    f04f4000    O..@    MOV      r0,#0x80000000
        0x00001f50:    f4056270    ..pb    AND      r2,r5,#0xf00
        0x00001f54:    ea4030c2    @..0    ORR      r0,r0,r2,LSL #15
        0x00001f58:    b2ea        ..      UXTB     r2,r5
        0x00001f5a:    4310        .C      ORRS     r0,r0,r2
        0x00001f5c:    9901        ..      LDR      r1,[sp,#4]
        0x00001f5e:    f44f22e0    O.."    MOV      r2,#0x70000
        0x00001f62:    ea024101    ...A    AND      r1,r2,r1,LSL #16
        0x00001f66:    4308        .C      ORRS     r0,r0,r1
        0x00001f68:    4928        (I      LDR      r1,[pc,#160] ; [0x200c] = 0x5c00ff00
        0x00001f6a:    4031        1@      ANDS     r1,r1,r6
        0x00001f6c:    4308        .C      ORRS     r0,r0,r1
        0x00001f6e:    f8c70110    ....    STR      r0,[r7,#0x110]
        0x00001f72:    2c06        .,      CMP      r4,#6
        0x00001f74:    bf2e        ..      ITEE     CS
        0x00001f76:    2600        .&      MOVCS    r6,#0
        0x00001f78:    f8d70100    ....    LDRCC    r0,[r7,#0x100]
        0x00001f7c:    b2c6        ..      UXTBCC   r6,r0
        0x00001f7e:    42ae        .B      CMP      r6,r5
        0x00001f80:    d306        ..      BCC      0x1f90 ; am_hal_iom_spi_read_nq + 256
        0x00001f82:    462a        *F      MOV      r2,r5
        0x00001f84:    4649        IF      MOV      r1,r9
        0x00001f86:    4620         F      MOV      r0,r4
        0x00001f88:    f7fff8c6    ....    BL       am_hal_iom_fifo_read ; 0x1118
        0x00001f8c:    2500        .%      MOVS     r5,#0
        0x00001f8e:    e00b        ..      B        0x1fa8 ; am_hal_iom_spi_read_nq + 280
        0x00001f90:    2e04        ..      CMP      r6,#4
        0x00001f92:    d309        ..      BCC      0x1fa8 ; am_hal_iom_spi_read_nq + 280
        0x00001f94:    f0260203    &...    BIC      r2,r6,#3
        0x00001f98:    4649        IF      MOV      r1,r9
        0x00001f9a:    4620         F      MOV      r0,r4
        0x00001f9c:    f7fff8bc    ....    BL       am_hal_iom_fifo_read ; 0x1118
        0x00001fa0:    f0260003    &...    BIC      r0,r6,#3
        0x00001fa4:    1a2d        -.      SUBS     r5,r5,r0
        0x00001fa6:    4481        .D      ADD      r9,r9,r0
        0x00001fa8:    f1ba0f01    ....    CMP      r10,#1
        0x00001fac:    d005        ..      BEQ      0x1fba ; am_hal_iom_spi_read_nq + 298
        0x00001fae:    f8d70204    ....    LDR      r0,[r7,#0x204]
        0x00001fb2:    2d00        .-      CMP      r5,#0
        0x00001fb4:    f0000a01    ....    AND      r10,r0,#1
        0x00001fb8:    d1db        ..      BNE      0x1f72 ; am_hal_iom_spi_read_nq + 226
        0x00001fba:    4815        .H      LDR      r0,[pc,#84] ; [0x2010] = 0x50004204
        0x00001fbc:    2301        .#      MOVS     r3,#1
        0x00001fbe:    eb003104    ...1    ADD      r1,r0,r4,LSL #12
        0x00001fc2:    4810        .H      LDR      r0,[pc,#64] ; [0x2004] = 0x10000758
        0x00001fc4:    461a        .F      MOV      r2,r3
        0x00001fc6:    f8500024    P.$.    LDR      r0,[r0,r4,LSL #2]
        0x00001fca:    f7fefd1b    ....    BL       am_hal_flash_delay_status_change ; 0xa04
        0x00001fce:    2801        .(      CMP      r0,#1
        0x00001fd0:    bf18        ..      IT       NE
        0x00001fd2:    2001        .       MOVNE    r0,#1
        0x00001fd4:    d103        ..      BNE      0x1fde ; am_hal_iom_spi_read_nq + 334
        0x00001fd6:    2100        .!      MOVS     r1,#0
        0x00001fd8:    4620         F      MOV      r0,r4
        0x00001fda:    f001fccd    ....    BL       internal_iom_get_int_err ; 0x3978
        0x00001fde:    f8080004    ....    STRB     r0,[r8,r4]
        0x00001fe2:    f24071ff    @..q    MOV      r1,#0x7ff
        0x00001fe6:    f8c71208    ....    STR      r1,[r7,#0x208]
        0x00001fea:    f8c7b200    ....    STR      r11,[r7,#0x200]
        0x00001fee:    b004        ..      ADD      sp,sp,#0x10
        0x00001ff0:    e8bd9ff0    ....    POP      {r4-r12,pc}
    $d
        0x00001ff4:    100000b4    ....    DCD    268435636
        0x00001ff8:    100000bb    ....    DCD    268435643
        0x00001ffc:    40020000    ...@    DCD    1073872896
        0x00002000:    50008204    ...P    DCD    1342210564
        0x00002004:    10000758    X...    DCD    268437336
        0x00002008:    50008000    ...P    DCD    1342210048
        0x0000200c:    5c00ff00    ...\    DCD    1543569152
        0x00002010:    50004204    .B.P    DCD    1342194180
    $t
    i.am_hal_iom_spi_write
    am_hal_iom_spi_write
        0x00002014:    2806        .(      CMP      r0,#6
        0x00002016:    bf24        $.      ITT      CS
        0x00002018:    2002        .       MOVCS    r0,#2
        0x0000201a:    4770        pG      BXCS     lr
        0x0000201c:    e92d4ff0    -..O    PUSH     {r4-r11,lr}
        0x00002020:    b08b        ..      SUB      sp,sp,#0x2c
        0x00002022:    4604        .F      MOV      r4,r0
        0x00002024:    f8df80c8    ....    LDR      r8,[pc,#200] ; [0x20f0] = 0x100000bb
        0x00002028:    2000        .       MOVS     r0,#0
        0x0000202a:    9d14        ..      LDR      r5,[sp,#0x50]
        0x0000202c:    f8080004    ....    STRB     r0,[r8,r4]
        0x00002030:    2b00        .+      CMP      r3,#0
        0x00002032:    bf01        ..      ITTTT    EQ
        0x00002034:    2003        .       MOVEQ    r0,#3
        0x00002036:    f8080004    ....    STRBEQ   r0,[r8,r4]
        0x0000203a:    b00b        ..      ADDEQ    sp,sp,#0x2c
        0x0000203c:    e8bd8ff0    ....    POPEQ    {r4-r11,pc}
        0x00002040:    eb040644    ..D.    ADD      r6,r4,r4,LSL #1
        0x00002044:    f8dfc0ac    ....    LDR      r12,[pc,#172] ; [0x20f4] = 0x10000770
        0x00002048:    eb0c06c6    ....    ADD      r6,r12,r6,LSL #3
        0x0000204c:    f8d6c014    ....    LDR      r12,[r6,#0x14]
        0x00002050:    f1bc0f00    ....    CMP      r12,#0
        0x00002054:    d044        D.      BEQ      0x20e0 ; am_hal_iom_spi_write + 204
        0x00002056:    468a        .F      MOV      r10,r1
        0x00002058:    4691        .F      MOV      r9,r2
        0x0000205a:    461f        .F      MOV      r7,r3
        0x0000205c:    f04f0b00    O...    MOV      r11,#0
        0x00002060:    f7fef896    ....    BL       am_hal_interrupt_master_disable ; 0x190
        0x00002064:    9002        ..      STR      r0,[sp,#8]
        0x00002066:    4824        $H      LDR      r0,[pc,#144] ; [0x20f8] = 0x100000b4
        0x00002068:    5d00        .]      LDRB     r0,[r0,r4]
        0x0000206a:    2800        .(      CMP      r0,#0
        0x0000206c:    bf04        ..      ITT      EQ
        0x0000206e:    68b0        .h      LDREQ    r0,[r6,#8]
        0x00002070:    2800        .(      CMPEQ    r0,#0
        0x00002072:    d014        ..      BEQ      0x209e ; am_hal_iom_spi_write + 138
        0x00002074:    f04f0000    O...    MOV      r0,#0
        0x00002078:    f8cda014    ....    STR      r10,[sp,#0x14]
        0x0000207c:    e9cd0403    ....    STRD     r0,r4,[sp,#0xc]
        0x00002080:    e9cd5008    ...P    STRD     r5,r0,[sp,#0x20]
        0x00002084:    e9cd9706    ....    STRD     r9,r7,[sp,#0x18]
        0x00002088:    4630        0F      MOV      r0,r6
        0x0000208a:    f04f0201    O...    MOV      r2,#1
        0x0000208e:    a903        ..      ADD      r1,sp,#0xc
        0x00002090:    f000fd96    ....    BL       am_hal_queue_item_add ; 0x2bc0
        0x00002094:    2800        .(      CMP      r0,#0
        0x00002096:    bf08        ..      IT       EQ
        0x00002098:    2508        .%      MOVEQ    r5,#8
        0x0000209a:    d00a        ..      BEQ      0x20b2 ; am_hal_iom_spi_write + 158
        0x0000209c:    e014        ..      B        0x20c8 ; am_hal_iom_spi_write + 180
        0x0000209e:    e9cd5b00    ...[    STRD     r5,r11,[sp,#0]
        0x000020a2:    463b        ;F      MOV      r3,r7
        0x000020a4:    464a        JF      MOV      r2,r9
        0x000020a6:    4651        QF      MOV      r1,r10
        0x000020a8:    4620         F      MOV      r0,r4
        0x000020aa:    f000f829    ..).    BL       am_hal_iom_spi_write_nb ; 0x2100
        0x000020ae:    0005        ..      MOVS     r5,r0
        0x000020b0:    d00a        ..      BEQ      0x20c8 ; am_hal_iom_spi_write + 180
        0x000020b2:    f8085004    ...P    STRB     r5,[r8,r4]
        0x000020b6:    9802        ..      LDR      r0,[sp,#8]
        0x000020b8:    f7fef86e    ..n.    BL       am_hal_interrupt_master_set ; 0x198
        0x000020bc:    0028        (.      MOVS     r0,r5
        0x000020be:    bf1c        ..      ITT      NE
        0x000020c0:    b00b        ..      ADDNE    sp,sp,#0x2c
        0x000020c2:    e8bd8ff0    ....    POPNE    {r4-r11,pc}
        0x000020c6:    e002        ..      B        0x20ce ; am_hal_iom_spi_write + 186
        0x000020c8:    9802        ..      LDR      r0,[sp,#8]
        0x000020ca:    f7fef865    ..e.    BL       am_hal_interrupt_master_set ; 0x198
        0x000020ce:    490b        .I      LDR      r1,[pc,#44] ; [0x20fc] = 0x100000b0
        0x000020d0:    4620         F      MOV      r0,r4
        0x000020d2:    6809        .h      LDR      r1,[r1,#0]
        0x000020d4:    4788        .G      BLX      r1
        0x000020d6:    f8180004    ....    LDRB     r0,[r8,r4]
        0x000020da:    b00b        ..      ADD      sp,sp,#0x2c
        0x000020dc:    e8bd8ff0    ....    POP      {r4-r11,pc}
        0x000020e0:    4620         F      MOV      r0,r4
        0x000020e2:    9500        ..      STR      r5,[sp,#0]
        0x000020e4:    f000f89a    ....    BL       am_hal_iom_spi_write_nq ; 0x221c
        0x000020e8:    b00b        ..      ADD      sp,sp,#0x2c
        0x000020ea:    e8bd8ff0    ....    POP      {r4-r11,pc}
    $d
        0x000020ee:    0000        ..      DCW    0
        0x000020f0:    100000bb    ....    DCD    268435643
        0x000020f4:    10000770    p...    DCD    268437360
        0x000020f8:    100000b4    ....    DCD    268435636
        0x000020fc:    100000b0    ....    DCD    268435632
    $t
    i.am_hal_iom_spi_write_nb
    am_hal_iom_spi_write_nb
        0x00002100:    2806        .(      CMP      r0,#6
        0x00002102:    bf24        $.      ITT      CS
        0x00002104:    2002        .       MOVCS    r0,#2
        0x00002106:    4770        pG      BXCS     lr
        0x00002108:    e92d4fff    -..O    PUSH     {r0-r11,lr}
        0x0000210c:    b081        ..      SUB      sp,sp,#4
        0x0000210e:    4605        .F      MOV      r5,r0
        0x00002110:    e9dd7b0e    ...{    LDRD     r7,r11,[sp,#0x38]
        0x00002114:    483c        <H      LDR      r0,[pc,#240] ; [0x2208] = 0x100000b4
        0x00002116:    461c        .F      MOV      r4,r3
        0x00002118:    4690        .F      MOV      r8,r2
        0x0000211a:    5d41        A]      LDRB     r1,[r0,r5]
        0x0000211c:    2900        .)      CMP      r1,#0
        0x0000211e:    d1fc        ..      BNE      0x211a ; am_hal_iom_spi_write_nb + 26
        0x00002120:    493a        :I      LDR      r1,[pc,#232] ; [0x220c] = 0x100000bb
        0x00002122:    2200        ."      MOVS     r2,#0
        0x00002124:    2c00        .,      CMP      r4,#0
        0x00002126:    554a        JU      STRB     r2,[r1,r5]
        0x00002128:    9200        ..      STR      r2,[sp,#0]
        0x0000212a:    bf18        ..      IT       NE
        0x0000212c:    f5b45f80    ..._    CMPNE    r4,#0x1000
        0x00002130:    bf21        !.      ITTTT    CS
        0x00002132:    2003        .       MOVCS    r0,#3
        0x00002134:    5548        HU      STRBCS   r0,[r1,r5]
        0x00002136:    b005        ..      ADDCS    sp,sp,#0x14
        0x00002138:    e8bd8ff0    ....    POPCS    {r4-r11,pc}
        0x0000213c:    0329        ).      LSLS     r1,r5,#12
        0x0000213e:    f1014aa0    ...J    ADD      r10,r1,#0x50000000
        0x00002142:    f50a4a80    ...J    ADD      r10,r10,#0x4000
        0x00002146:    f8da111c    ....    LDR      r1,[r10,#0x11c]
        0x0000214a:    f0110f08    ....    TST      r1,#8
        0x0000214e:    bf0c        ..      ITE      EQ
        0x00002150:    2680        .&      MOVEQ    r6,#0x80
        0x00002152:    2640        @&      MOVNE    r6,#0x40
        0x00002154:    f04f0901    O...    MOV      r9,#1
        0x00002158:    f8009005    ....    STRB     r9,[r0,r5]
        0x0000215c:    f24070ff    @..p    MOV      r0,#0x7ff
        0x00002160:    f8ca0208    ....    STR      r0,[r10,#0x208]
        0x00002164:    2d04        .-      CMP      r5,#4
        0x00002166:    d104        ..      BNE      0x2172 ; am_hal_iom_spi_write_nb + 114
        0x00002168:    4829        )H      LDR      r0,[pc,#164] ; [0x2210] = 0x40020000
        0x0000216a:    68c0        .h      LDR      r0,[r0,#0xc]
        0x0000216c:    b2c0        ..      UXTB     r0,r0
        0x0000216e:    2820         (      CMP      r0,#0x20
        0x00002170:    d02e        ..      BEQ      0x21d0 ; am_hal_iom_spi_write_nb + 208
        0x00002172:    42b4        .B      CMP      r4,r6
        0x00002174:    bf98        ..      IT       LS
        0x00002176:    461e        .F      MOVLS    r6,r3
        0x00002178:    4632        2F      MOV      r2,r6
        0x0000217a:    4641        AF      MOV      r1,r8
        0x0000217c:    4628        (F      MOV      r0,r5
        0x0000217e:    f7fff837    ..7.    BL       am_hal_iom_fifo_write ; 0x11f0
        0x00002182:    b308        ..      CBZ      r0,0x21c8 ; am_hal_iom_spi_write_nb + 200
        0x00002184:    4823        #H      LDR      r0,[pc,#140] ; [0x2214] = 0x100006e0
        0x00002186:    eb050185    ....    ADD      r1,r5,r5,LSL #2
        0x0000218a:    f4046270    ..pb    AND      r2,r4,#0xf00
        0x0000218e:    f8409021    @.!.    STR      r9,[r0,r1,LSL #2]
        0x00002192:    eb000081    ....    ADD      r0,r0,r1,LSL #2
        0x00002196:    1ba1        ..      SUBS     r1,r4,r6
        0x00002198:    f8c0b010    ....    STR      r11,[r0,#0x10]
        0x0000219c:    e9c01702    ....    STRD     r1,r7,[r0,#8]
        0x000021a0:    f0260103    &...    BIC      r1,r6,#3
        0x000021a4:    4441        AD      ADD      r1,r1,r8
        0x000021a6:    6041        A`      STR      r1,[r0,#4]
        0x000021a8:    2000        .       MOVS     r0,#0
        0x000021aa:    ea4030c2    @..0    ORR      r0,r0,r2,LSL #15
        0x000021ae:    b2e2        ..      UXTB     r2,r4
        0x000021b0:    4310        .C      ORRS     r0,r0,r2
        0x000021b2:    9902        ..      LDR      r1,[sp,#8]
        0x000021b4:    f44f22e0    O.."    MOV      r2,#0x70000
        0x000021b8:    ea024101    ...A    AND      r1,r2,r1,LSL #16
        0x000021bc:    4308        .C      ORRS     r0,r0,r1
        0x000021be:    4916        .I      LDR      r1,[pc,#88] ; [0x2218] = 0x5c00ff00
        0x000021c0:    4039        9@      ANDS     r1,r1,r7
        0x000021c2:    4308        .C      ORRS     r0,r0,r1
        0x000021c4:    f8ca0110    ....    STR      r0,[r10,#0x110]
        0x000021c8:    9800        ..      LDR      r0,[sp,#0]
        0x000021ca:    b005        ..      ADD      sp,sp,#0x14
        0x000021cc:    e8bd8ff0    ....    POP      {r4-r11,pc}
        0x000021d0:    1f30        0.      SUBS     r0,r6,#4
        0x000021d2:    4284        .B      CMP      r4,r0
        0x000021d4:    bf94        ..      ITE      LS
        0x000021d6:    4619        .F      MOVLS    r1,r3
        0x000021d8:    4601        .F      MOVHI    r1,r0
        0x000021da:    480e        .H      LDR      r0,[pc,#56] ; [0x2214] = 0x100006e0
        0x000021dc:    4a0d        .J      LDR      r2,[pc,#52] ; [0x2214] = 0x100006e0
        0x000021de:    f8c09050    ..P.    STR      r9,[r0,#0x50]
        0x000021e2:    f0210003    !...    BIC      r0,r1,#3
        0x000021e6:    eb000308    ....    ADD      r3,r0,r8
        0x000021ea:    f8c2b060    ..`.    STR      r11,[r2,#0x60]
        0x000021ee:    f1020050    ..P.    ADD      r0,r2,#0x50
        0x000021f2:    6553        Se      STR      r3,[r2,#0x54]
        0x000021f4:    1a61        a.      SUBS     r1,r4,r1
        0x000021f6:    e9c01702    ....    STRD     r1,r7,[r0,#8]
        0x000021fa:    463b        ;F      MOV      r3,r7
        0x000021fc:    4622        "F      MOV      r2,r4
        0x000021fe:    4641        AF      MOV      r1,r8
        0x00002200:    9802        ..      LDR      r0,[sp,#8]
        0x00002202:    f000f8bb    ....    BL       am_hal_iom_workaround_word_write ; 0x237c
        0x00002206:    e7df        ..      B        0x21c8 ; am_hal_iom_spi_write_nb + 200
    $d
        0x00002208:    100000b4    ....    DCD    268435636
        0x0000220c:    100000bb    ....    DCD    268435643
        0x00002210:    40020000    ...@    DCD    1073872896
        0x00002214:    100006e0    ....    DCD    268437216
        0x00002218:    5c00ff00    ...\    DCD    1543569152
    $t
    i.am_hal_iom_spi_write_nq
    am_hal_iom_spi_write_nq
        0x0000221c:    2806        .(      CMP      r0,#6
        0x0000221e:    bf24        $.      ITT      CS
        0x00002220:    2002        .       MOVCS    r0,#2
        0x00002222:    4770        pG      BXCS     lr
        0x00002224:    e92d5fff    -.._    PUSH     {r0-r12,lr}
        0x00002228:    4604        .F      MOV      r4,r0
        0x0000222a:    484e        NH      LDR      r0,[pc,#312] ; [0x2364] = 0x100000b4
        0x0000222c:    461d        .F      MOV      r5,r3
        0x0000222e:    5d01        .]      LDRB     r1,[r0,r4]
        0x00002230:    2900        .)      CMP      r1,#0
        0x00002232:    d1fc        ..      BNE      0x222e ; am_hal_iom_spi_write_nq + 18
        0x00002234:    f8df8130    ..0.    LDR      r8,[pc,#304] ; [0x2368] = 0x100000bb
        0x00002238:    4689        .F      MOV      r9,r1
        0x0000223a:    2d00        .-      CMP      r5,#0
        0x0000223c:    f8089004    ....    STRB     r9,[r8,r4]
        0x00002240:    bf18        ..      IT       NE
        0x00002242:    f5b55f80    ..._    CMPNE    r5,#0x1000
        0x00002246:    bf21        !.      ITTTT    CS
        0x00002248:    2003        .       MOVCS    r0,#3
        0x0000224a:    f8080004    ....    STRBCS   r0,[r8,r4]
        0x0000224e:    b004        ..      ADDCS    sp,sp,#0x10
        0x00002250:    e8bd9ff0    ....    POPCS    {r4-r12,pc}
        0x00002254:    0320         .      LSLS     r0,r4,#12
        0x00002256:    f10046a0    ...F    ADD      r6,r0,#0x50000000
        0x0000225a:    f5064680    ...F    ADD      r6,r6,#0x4000
        0x0000225e:    f8d6011c    ....    LDR      r0,[r6,#0x11c]
        0x00002262:    f0100f08    ....    TST      r0,#8
        0x00002266:    bf0c        ..      ITE      EQ
        0x00002268:    2780        .'      MOVEQ    r7,#0x80
        0x0000226a:    2740        @'      MOVNE    r7,#0x40
        0x0000226c:    f8d6a200    ....    LDR      r10,[r6,#0x200]
        0x00002270:    f8c69200    ....    STR      r9,[r6,#0x200]
        0x00002274:    f2407bff    @..{    MOV      r11,#0x7ff
        0x00002278:    f8c6b208    ....    STR      r11,[r6,#0x208]
        0x0000227c:    2c04        .,      CMP      r4,#4
        0x0000227e:    d104        ..      BNE      0x228a ; am_hal_iom_spi_write_nq + 110
        0x00002280:    483a        :H      LDR      r0,[pc,#232] ; [0x236c] = 0x40020000
        0x00002282:    68c0        .h      LDR      r0,[r0,#0xc]
        0x00002284:    b2c0        ..      UXTB     r0,r0
        0x00002286:    2820         (      CMP      r0,#0x20
        0x00002288:    d020         .      BEQ      0x22cc ; am_hal_iom_spi_write_nq + 176
        0x0000228a:    42bd        .B      CMP      r5,r7
        0x0000228c:    bf98        ..      IT       LS
        0x0000228e:    461f        .F      MOVLS    r7,r3
        0x00002290:    463a        :F      MOV      r2,r7
        0x00002292:    4620         F      MOV      r0,r4
        0x00002294:    9902        ..      LDR      r1,[sp,#8]
        0x00002296:    f7feffab    ....    BL       am_hal_iom_fifo_write ; 0x11f0
        0x0000229a:    2000        .       MOVS     r0,#0
        0x0000229c:    f4056370    ..pc    AND      r3,r5,#0xf00
        0x000022a0:    ea4030c3    @..0    ORR      r0,r0,r3,LSL #15
        0x000022a4:    b2eb        ..      UXTB     r3,r5
        0x000022a6:    4318        .C      ORRS     r0,r0,r3
        0x000022a8:    9a01        ..      LDR      r2,[sp,#4]
        0x000022aa:    f44f23e0    O..#    MOV      r3,#0x70000
        0x000022ae:    ea034202    ...B    AND      r2,r3,r2,LSL #16
        0x000022b2:    4310        .C      ORRS     r0,r0,r2
        0x000022b4:    4a2e        .J      LDR      r2,[pc,#184] ; [0x2370] = 0x5c00ff00
        0x000022b6:    990e        ..      LDR      r1,[sp,#0x38]
        0x000022b8:    4011        .@      ANDS     r1,r1,r2
        0x000022ba:    4308        .C      ORRS     r0,r0,r1
        0x000022bc:    f8c60110    ....    STR      r0,[r6,#0x110]
        0x000022c0:    9802        ..      LDR      r0,[sp,#8]
        0x000022c2:    1bed        ..      SUBS     r5,r5,r7
        0x000022c4:    f0270103    '...    BIC      r1,r7,#3
        0x000022c8:    180f        ..      ADDS     r7,r1,r0
        0x000022ca:    e02a        *.      B        0x2322 ; am_hal_iom_spi_write_nq + 262
        0x000022cc:    e9dd0101    ....    LDRD     r0,r1,[sp,#4]
        0x000022d0:    462a        *F      MOV      r2,r5
        0x000022d2:    9b0e        ..      LDR      r3,[sp,#0x38]
        0x000022d4:    f000f852    ..R.    BL       am_hal_iom_workaround_word_write ; 0x237c
        0x000022d8:    1f38        8.      SUBS     r0,r7,#4
        0x000022da:    4285        .B      CMP      r5,r0
        0x000022dc:    bf94        ..      ITE      LS
        0x000022de:    462f        /F      MOVLS    r7,r5
        0x000022e0:    1f3f        ?.      SUBHI    r7,r7,#4
        0x000022e2:    e7ed        ..      B        0x22c0 ; am_hal_iom_spi_write_nq + 164
        0x000022e4:    2c06        .,      CMP      r4,#6
        0x000022e6:    bf28        (.      IT       CS
        0x000022e8:    2000        .       MOVCS    r0,#0
        0x000022ea:    d20b        ..      BCS      0x2304 ; am_hal_iom_spi_write_nq + 232
        0x000022ec:    f8d6011c    ....    LDR      r0,[r6,#0x11c]
        0x000022f0:    f0100f08    ....    TST      r0,#8
        0x000022f4:    bf0c        ..      ITE      EQ
        0x000022f6:    2080        .       MOVEQ    r0,#0x80
        0x000022f8:    2040        @       MOVNE    r0,#0x40
        0x000022fa:    f8d61100    ....    LDR      r1,[r6,#0x100]
        0x000022fe:    1a40        @.      SUBS     r0,r0,r1
        0x00002300:    f00000fc    ....    AND      r0,r0,#0xfc
        0x00002304:    4285        .B      CMP      r5,r0
        0x00002306:    bf94        ..      ITE      LS
        0x00002308:    46a9        .F      MOVLS    r9,r5
        0x0000230a:    f0200903     ...    BICHI    r9,r0,#3
        0x0000230e:    464a        JF      MOV      r2,r9
        0x00002310:    4639        9F      MOV      r1,r7
        0x00002312:    4620         F      MOV      r0,r4
        0x00002314:    f7feff6c    ..l.    BL       am_hal_iom_fifo_write ; 0x11f0
        0x00002318:    f0290003    )...    BIC      r0,r9,#3
        0x0000231c:    eba50509    ....    SUB      r5,r5,r9
        0x00002320:    4407        .D      ADD      r7,r7,r0
        0x00002322:    b125        %.      CBZ      r5,0x232e ; am_hal_iom_spi_write_nq + 274
        0x00002324:    f8d60204    ....    LDR      r0,[r6,#0x204]
        0x00002328:    f0100f01    ....    TST      r0,#1
        0x0000232c:    d0da        ..      BEQ      0x22e4 ; am_hal_iom_spi_write_nq + 200
        0x0000232e:    4811        .H      LDR      r0,[pc,#68] ; [0x2374] = 0x50004204
        0x00002330:    2301        .#      MOVS     r3,#1
        0x00002332:    eb003104    ...1    ADD      r1,r0,r4,LSL #12
        0x00002336:    4810        .H      LDR      r0,[pc,#64] ; [0x2378] = 0x10000758
        0x00002338:    461a        .F      MOV      r2,r3
        0x0000233a:    f8500024    P.$.    LDR      r0,[r0,r4,LSL #2]
        0x0000233e:    f7fefb61    ..a.    BL       am_hal_flash_delay_status_change ; 0xa04
        0x00002342:    2801        .(      CMP      r0,#1
        0x00002344:    bf18        ..      IT       NE
        0x00002346:    2001        .       MOVNE    r0,#1
        0x00002348:    d103        ..      BNE      0x2352 ; am_hal_iom_spi_write_nq + 310
        0x0000234a:    2100        .!      MOVS     r1,#0
        0x0000234c:    4620         F      MOV      r0,r4
        0x0000234e:    f001fb13    ....    BL       internal_iom_get_int_err ; 0x3978
        0x00002352:    f8080004    ....    STRB     r0,[r8,r4]
        0x00002356:    f8c6b208    ....    STR      r11,[r6,#0x208]
        0x0000235a:    f8c6a200    ....    STR      r10,[r6,#0x200]
        0x0000235e:    b004        ..      ADD      sp,sp,#0x10
        0x00002360:    e8bd9ff0    ....    POP      {r4-r12,pc}
    $d
        0x00002364:    100000b4    ....    DCD    268435636
        0x00002368:    100000bb    ....    DCD    268435643
        0x0000236c:    40020000    ...@    DCD    1073872896
        0x00002370:    5c00ff00    ...\    DCD    1543569152
        0x00002374:    50004204    .B.P    DCD    1342194180
        0x00002378:    10000758    X...    DCD    268437336
    $t
    i.am_hal_iom_workaround_word_write
    am_hal_iom_workaround_word_write
        0x0000237c:    e92d4fff    -..O    PUSH     {r0-r11,lr}
        0x00002380:    b08d        ..      SUB      sp,sp,#0x34
        0x00002382:    4cf7        .L      LDR      r4,[pc,#988] ; [0x2760] = 0x50008000
        0x00002384:    2700        .'      MOVS     r7,#0
        0x00002386:    9702        ..      STR      r7,[sp,#8]
        0x00002388:    f8d4011c    ....    LDR      r0,[r4,#0x11c]
        0x0000238c:    4699        .F      MOV      r9,r3
        0x0000238e:    f0100f08    ....    TST      r0,#8
        0x00002392:    bf0c        ..      ITE      EQ
        0x00002394:    2680        .&      MOVEQ    r6,#0x80
        0x00002396:    2640        @&      MOVNE    r6,#0x40
        0x00002398:    f64071fb    @..q    MOV      r1,#0xffb
        0x0000239c:    980f        ..      LDR      r0,[sp,#0x3c]
        0x0000239e:    4288        .B      CMP      r0,r1
        0x000023a0:    d905        ..      BLS      0x23ae ; am_hal_iom_workaround_word_write + 50
        0x000023a2:    a2f0        ..      ADR      r2,{pc}+0x3c2 ; 0x2764
        0x000023a4:    f24041b3    @..A    MOV      r1,#0x4b3
        0x000023a8:    a0f4        ..      ADR      r0,{pc}+0x3d4 ; 0x277c
        0x000023aa:    f7fefb23    ..#.    BL       am_hal_debug_error ; 0x9f4
        0x000023ae:    48ec        .H      LDR      r0,[pc,#944] ; [0x2760] = 0x50008000
        0x000023b0:    f8d0410c    ...A    LDR      r4,[r0,#0x10c]
        0x000023b4:    f8dfa3d4    ....    LDR      r10,[pc,#980] ; [0x278c] = 0xf42400
        0x000023b8:    f8d0010c    ....    LDR      r0,[r0,#0x10c]
        0x000023bc:    2501        .%      MOVS     r5,#1
        0x000023be:    f3c021c0    ...!    UBFX     r1,r0,#11,#1
        0x000023c2:    f3c03300    ...3    UBFX     r3,r0,#12,#1
        0x000023c6:    0e00        ..      LSRS     r0,r0,#24
        0x000023c8:    eb050241    ..A.    ADD      r2,r5,r1,LSL #1
        0x000023cc:    fb13f000    ....    SMULBB   r0,r3,r0
        0x000023d0:    f8df83bc    ....    LDR      r8,[pc,#956] ; [0x2790] = 0x2dc6c00
        0x000023d4:    1c41        A.      ADDS     r1,r0,#1
        0x000023d6:    1e68        h.      SUBS     r0,r5,#1
        0x000023d8:    fa02f000    ....    LSL      r0,r2,r0
        0x000023dc:    4348        HC      MULS     r0,r1,r0
        0x000023de:    fbb8fcf0    ....    UDIV     r12,r8,r0
        0x000023e2:    fbb8f3f0    ....    UDIV     r3,r8,r0
        0x000023e6:    fb008c1c    ....    MLS      r12,r0,r12,r8
        0x000023ea:    ebbc0f50    ..P.    CMP      r12,r0,LSR #1
        0x000023ee:    bf8c        ..      ITE      HI
        0x000023f0:    2001        .       MOVHI    r0,#1
        0x000023f2:    2000        .       MOVLS    r0,#0
        0x000023f4:    4418        .D      ADD      r0,r0,r3
        0x000023f6:    4550        PE      CMP      r0,r10
        0x000023f8:    d800        ..      BHI      0x23fc ; am_hal_iom_workaround_word_write + 128
        0x000023fa:    b948        H.      CBNZ     r0,0x2410 ; am_hal_iom_workaround_word_write + 148
        0x000023fc:    1c6d        m.      ADDS     r5,r5,#1
        0x000023fe:    2d08        .-      CMP      r5,#8
        0x00002400:    d3e9        ..      BCC      0x23d6 ; am_hal_iom_workaround_word_write + 90
        0x00002402:    a2e4        ..      ADR      r2,{pc}+0x392 ; 0x2794
        0x00002404:    f2404151    @.QA    MOV      r1,#0x451
        0x00002408:    a0f0        ..      ADR      r0,{pc}+0x3c4 ; 0x27cc
        0x0000240a:    f7fefaf3    ....    BL       am_hal_debug_error ; 0x9f4
        0x0000240e:    4655        UF      MOV      r5,r10
        0x00002410:    46a3        .F      MOV      r11,r4
        0x00002412:    f3652b0a    e..+    BFI      r11,r5,#8,#3
        0x00002416:    2501        .%      MOVS     r5,#1
        0x00002418:    f3c42002    ...     UBFX     r0,r4,#8,#3
        0x0000241c:    f3c421c0    ...!    UBFX     r1,r4,#11,#1
        0x00002420:    0e23        #.      LSRS     r3,r4,#24
        0x00002422:    eb050141    ..A.    ADD      r1,r5,r1,LSL #1
        0x00002426:    1e40        @.      SUBS     r0,r0,#1
        0x00002428:    f3c43200    ...2    UBFX     r2,r4,#12,#1
        0x0000242c:    fa01f000    ....    LSL      r0,r1,r0
        0x00002430:    fb12f103    ....    SMULBB   r1,r2,r3
        0x00002434:    1c49        I.      ADDS     r1,r1,#1
        0x00002436:    4348        HC      MULS     r0,r1,r0
        0x00002438:    fbb8f2f0    ....    UDIV     r2,r8,r0
        0x0000243c:    fbb8f1f0    ....    UDIV     r1,r8,r0
        0x00002440:    fb008212    ....    MLS      r2,r0,r2,r8
        0x00002444:    ebb20f50    ..P.    CMP      r2,r0,LSR #1
        0x00002448:    bf8c        ..      ITE      HI
        0x0000244a:    2001        .       MOVHI    r0,#1
        0x0000244c:    2000        .       MOVLS    r0,#0
        0x0000244e:    4408        .D      ADD      r0,r0,r1
        0x00002450:    49c3        .I      LDR      r1,[pc,#780] ; [0x2760] = 0x50008000
        0x00002452:    f8c1b10c    ....    STR      r11,[r1,#0x10c]
        0x00002456:    49e1        .I      LDR      r1,[pc,#900] ; [0x27dc] = 0x5b8d800
        0x00002458:    eb000040    ..@.    ADD      r0,r0,r0,LSL #1
        0x0000245c:    fbb1f0f0    ....    UDIV     r0,r1,r0
        0x00002460:    49df        .I      LDR      r1,[pc,#892] ; [0x27e0] = 0x800009d
        0x00002462:    4788        .G      BLX      r1
        0x00002464:    f3cb2002    ...     UBFX     r0,r11,#8,#3
        0x00002468:    f3cb23c0    ...#    UBFX     r3,r11,#11,#1
        0x0000246c:    f04f0c01    O...    MOV      r12,#1
        0x00002470:    eb0c0343    ..C.    ADD      r3,r12,r3,LSL #1
        0x00002474:    1e40        @.      SUBS     r0,r0,#1
        0x00002476:    f3cb3100    ...1    UBFX     r1,r11,#12,#1
        0x0000247a:    ea4f621b    O..b    LSR      r2,r11,#24
        0x0000247e:    fa03f000    ....    LSL      r0,r3,r0
        0x00002482:    fb11f102    ....    SMULBB   r1,r1,r2
        0x00002486:    1c49        I.      ADDS     r1,r1,#1
        0x00002488:    4348        HC      MULS     r0,r1,r0
        0x0000248a:    fbb8f2f0    ....    UDIV     r2,r8,r0
        0x0000248e:    fbb8f1f0    ....    UDIV     r1,r8,r0
        0x00002492:    fb008212    ....    MLS      r2,r0,r2,r8
        0x00002496:    ebb20f50    ..P.    CMP      r2,r0,LSR #1
        0x0000249a:    bf8c        ..      ITE      HI
        0x0000249c:    2001        .       MOVHI    r0,#1
        0x0000249e:    2000        .       MOVLS    r0,#0
        0x000024a0:    eb100a01    ....    ADDS     r10,r0,r1
        0x000024a4:    d105        ..      BNE      0x24b2 ; am_hal_iom_workaround_word_write + 310
        0x000024a6:    a2cf        ..      ADR      r2,{pc}+0x33e ; 0x27e4
        0x000024a8:    f24041de    @..A    MOV      r1,#0x4de
        0x000024ac:    a0b3        ..      ADR      r0,{pc}+0x2d0 ; 0x277c
        0x000024ae:    f7fefaa1    ....    BL       am_hal_debug_error ; 0x9f4
        0x000024b2:    48ab        .H      LDR      r0,[pc,#684] ; [0x2760] = 0x50008000
        0x000024b4:    f8dfb34c    ..L.    LDR      r11,[pc,#844] ; [0x2804] = 0xf4240
        0x000024b8:    f8d0010c    ....    LDR      r0,[r0,#0x10c]
        0x000024bc:    2501        .%      MOVS     r5,#1
        0x000024be:    f3c022c0    ..."    UBFX     r2,r0,#11,#1
        0x000024c2:    f3c03100    ...1    UBFX     r1,r0,#12,#1
        0x000024c6:    0e00        ..      LSRS     r0,r0,#24
        0x000024c8:    eb050242    ..B.    ADD      r2,r5,r2,LSL #1
        0x000024cc:    fb11f000    ....    SMULBB   r0,r1,r0
        0x000024d0:    1c41        A.      ADDS     r1,r0,#1
        0x000024d2:    1e68        h.      SUBS     r0,r5,#1
        0x000024d4:    fa02f000    ....    LSL      r0,r2,r0
        0x000024d8:    4348        HC      MULS     r0,r1,r0
        0x000024da:    fbb8fcf0    ....    UDIV     r12,r8,r0
        0x000024de:    fbb8f3f0    ....    UDIV     r3,r8,r0
        0x000024e2:    fb008c1c    ....    MLS      r12,r0,r12,r8
        0x000024e6:    ebbc0f50    ..P.    CMP      r12,r0,LSR #1
        0x000024ea:    bf8c        ..      ITE      HI
        0x000024ec:    2001        .       MOVHI    r0,#1
        0x000024ee:    2000        .       MOVLS    r0,#0
        0x000024f0:    4418        .D      ADD      r0,r0,r3
        0x000024f2:    4558        XE      CMP      r0,r11
        0x000024f4:    d800        ..      BHI      0x24f8 ; am_hal_iom_workaround_word_write + 380
        0x000024f6:    b948        H.      CBNZ     r0,0x250c ; am_hal_iom_workaround_word_write + 400
        0x000024f8:    1c6d        m.      ADDS     r5,r5,#1
        0x000024fa:    2d08        .-      CMP      r5,#8
        0x000024fc:    d3e9        ..      BCC      0x24d2 ; am_hal_iom_workaround_word_write + 342
        0x000024fe:    a2a5        ..      ADR      r2,{pc}+0x296 ; 0x2794
        0x00002500:    f2404151    @.QA    MOV      r1,#0x451
        0x00002504:    a0b1        ..      ADR      r0,{pc}+0x2c8 ; 0x27cc
        0x00002506:    f7fefa75    ..u.    BL       am_hal_debug_error ; 0x9f4
        0x0000250a:    465d        ]F      MOV      r5,r11
        0x0000250c:    4620         F      MOV      r0,r4
        0x0000250e:    f365200a    e..     BFI      r0,r5,#8,#3
        0x00002512:    f0194f80    ...O    TST      r9,#0x40000000
        0x00002516:    9007        ..      STR      r0,[sp,#0x1c]
        0x00002518:    d050        P.      BEQ      0x25bc ; am_hal_iom_workaround_word_write + 576
        0x0000251a:    48bb        .H      LDR      r0,[pc,#748] ; [0x2808] = 0x4d3f6400
        0x0000251c:    eb0a014a    ..J.    ADD      r1,r10,r10,LSL #1
        0x00002520:    fbb0faf1    ....    UDIV     r10,r0,r1
        0x00002524:    980e        ..      LDR      r0,[sp,#0x38]
        0x00002526:    7800        .x      LDRB     r0,[r0,#0]
        0x00002528:    f0100f80    ....    TST      r0,#0x80
        0x0000252c:    bf03        ..      ITTTE    EQ
        0x0000252e:    f06f00ff    o...    MVNEQ    r0,#0xff
        0x00002532:    f04f0800    O...    MOVEQ    r8,#0
        0x00002536:    9002        ..      STREQ    r0,[sp,#8]
        0x00002538:    f04f0801    O...    MOVNE    r8,#1
        0x0000253c:    bf18        ..      IT       NE
        0x0000253e:    9702        ..      STRNE    r7,[sp,#8]
        0x00002540:    f0494080    I..@    ORR      r0,r9,#0x40000000
        0x00002544:    9010        ..      STR      r0,[sp,#0x40]
        0x00002546:    980f        ..      LDR      r0,[sp,#0x3c]
        0x00002548:    f1000904    ....    ADD      r9,r0,#4
        0x0000254c:    45b1        .E      CMP      r9,r6
        0x0000254e:    bf98        ..      IT       LS
        0x00002550:    464e        NF      MOVLS    r6,r9
        0x00002552:    2204        ."      MOVS     r2,#4
        0x00002554:    a902        ..      ADD      r1,sp,#8
        0x00002556:    4610        .F      MOV      r0,r2
        0x00002558:    f7fefe4a    ..J.    BL       am_hal_iom_fifo_write ; 0x11f0
        0x0000255c:    1f32        2.      SUBS     r2,r6,#4
        0x0000255e:    2004        .       MOVS     r0,#4
        0x00002560:    990e        ..      LDR      r1,[sp,#0x38]
        0x00002562:    f7fefe45    ..E.    BL       am_hal_iom_fifo_write ; 0x11f0
        0x00002566:    49a9        .I      LDR      r1,[pc,#676] ; [0x280c] = 0x4281
        0x00002568:    9b0d        ..      LDR      r3,[sp,#0x34]
        0x0000256a:    2000        .       MOVS     r0,#0
        0x0000256c:    f04f0bff    O...    MOV      r11,#0xff
        0x00002570:    eb000240    ..@.    ADD      r2,r0,r0,LSL #1
        0x00002574:    f811c002    ....    LDRB     r12,[r1,r2]
        0x00002578:    459c        .E      CMP      r12,r3
        0x0000257a:    d136        6.      BNE      0x25ea ; am_hal_iom_workaround_word_write + 622
        0x0000257c:    eb020c01    ....    ADD      r12,r2,r1
        0x00002580:    f89c2001    ...     LDRB     r2,[r12,#1]
        0x00002584:    f00205fc    ....    AND      r5,r2,#0xfc
        0x00002588:    f1054580    ...E    ADD      r5,r5,#0x40000000
        0x0000258c:    f5053580    ...5    ADD      r5,r5,#0x10000
        0x00002590:    682d        -h      LDR      r5,[r5,#0]
        0x00002592:    0792        ..      LSLS     r2,r2,#30
        0x00002594:    0ed2        ..      LSRS     r2,r2,#27
        0x00002596:    fa0bf602    ....    LSL      r6,r11,r2
        0x0000259a:    4035        5@      ANDS     r5,r5,r6
        0x0000259c:    fa25f202    %...    LSR      r2,r5,r2
        0x000025a0:    f89cc002    ....    LDRB     r12,[r12,#2]
        0x000025a4:    f3c202c2    ....    UBFX     r2,r2,#3,#3
        0x000025a8:    4594        .E      CMP      r12,r2
        0x000025aa:    d11e        ..      BNE      0x25ea ; am_hal_iom_workaround_word_write + 622
        0x000025ac:    eb000040    ..@.    ADD      r0,r0,r0,LSL #1
        0x000025b0:    4408        .D      ADD      r0,r0,r1
        0x000025b2:    7846        Fx      LDRB     r6,[r0,#1]
        0x000025b4:    4896        .H      LDR      r0,[pc,#600] ; [0x2810] = 0xdeadbeef
        0x000025b6:    4286        .B      CMP      r6,r0
        0x000025b8:    d121        !.      BNE      0x25fe ; am_hal_iom_workaround_word_write + 642
        0x000025ba:    e01a        ..      B        0x25f2 ; am_hal_iom_workaround_word_write + 630
        0x000025bc:    4995        .I      LDR      r1,[pc,#596] ; [0x2814] = 0x365c0400
        0x000025be:    eb0a004a    ..J.    ADD      r0,r10,r10,LSL #1
        0x000025c2:    fbb1faf0    ....    UDIV     r10,r1,r0
        0x000025c6:    f409407f    ...@    AND      r0,r9,#0xff00
        0x000025ca:    0400        ..      LSLS     r0,r0,#16
        0x000025cc:    f0104f00    ...O    TST      r0,#0x80000000
        0x000025d0:    9002        ..      STR      r0,[sp,#8]
        0x000025d2:    bf11        ..      ITEEE    NE
        0x000025d4:    f04f0801    O...    MOVNE    r8,#1
        0x000025d8:    f440407f    @..@    ORREQ    r0,r0,#0xff00
        0x000025dc:    f440007f    @...    ORREQ    r0,r0,#0xff0000
        0x000025e0:    f04f0800    O...    MOVEQ    r8,#0
        0x000025e4:    bf08        ..      IT       EQ
        0x000025e6:    9002        ..      STREQ    r0,[sp,#8]
        0x000025e8:    e7aa        ..      B        0x2540 ; am_hal_iom_workaround_word_write + 452
        0x000025ea:    1c40        @.      ADDS     r0,r0,#1
        0x000025ec:    280d        .(      CMP      r0,#0xd
        0x000025ee:    d3bf        ..      BCC      0x2570 ; am_hal_iom_workaround_word_write + 500
        0x000025f0:    4e87        .N      LDR      r6,[pc,#540] ; [0x2810] = 0xdeadbeef
        0x000025f2:    2200        ."      MOVS     r2,#0
        0x000025f4:    f2405126    @.&Q    MOV      r1,#0x526
        0x000025f8:    a060        `.      ADR      r0,{pc}+0x184 ; 0x277c
        0x000025fa:    f7fef9fb    ....    BL       am_hal_debug_error ; 0x9f4
        0x000025fe:    f00600fc    ....    AND      r0,r6,#0xfc
        0x00002602:    f1004080    ...@    ADD      r0,r0,#0x40000000
        0x00002606:    f5003080    ...0    ADD      r0,r0,#0x10000
        0x0000260a:    6801        .h      LDR      r1,[r0,#0]
        0x0000260c:    f006031f    ....    AND      r3,r6,#0x1f
        0x00002610:    2201        ."      MOVS     r2,#1
        0x00002612:    409a        .@      LSLS     r2,r2,r3
        0x00002614:    2304        .#      MOVS     r3,#4
        0x00002616:    ea0303d6    ....    AND      r3,r3,r6,LSR #3
        0x0000261a:    f1034380    ...C    ADD      r3,r3,#0x40000000
        0x0000261e:    f5033380    ...3    ADD      r3,r3,#0x10000
        0x00002622:    f8c32090    ...     STR      r2,[r3,#0x90]
        0x00002626:    4d7c        |M      LDR      r5,[pc,#496] ; [0x2818] = 0x40010000
        0x00002628:    2e32        2.      CMP      r6,#0x32
        0x0000262a:    d230        0.      BCS      0x268e ; am_hal_iom_workaround_word_write + 786
        0x0000262c:    f3ef8210    ....    MRS      r2,PRIMASK
        0x00002630:    9209        ..      STR      r2,[sp,#0x24]
        0x00002632:    2273        s"      MOVS     r2,#0x73
        0x00002634:    662a        *f      STR      r2,[r5,#0x60]
        0x00002636:    b672        r.      CPSID    i
        0x00002638:    227c        |"      MOVS     r2,#0x7c
        0x0000263a:    ea020256    ..V.    AND      r2,r2,r6,LSR #1
        0x0000263e:    1953        S.      ADDS     r3,r2,r5
        0x00002640:    f8d3c040    ..@.    LDR      r12,[r3,#0x40]
        0x00002644:    0772        r.      LSLS     r2,r6,#29
        0x00002646:    0ed2        ..      LSRS     r2,r2,#27
        0x00002648:    f04f0e07    O...    MOV      lr,#7
        0x0000264c:    fa0efe02    ....    LSL      lr,lr,r2
        0x00002650:    ea2c0c0e    ,...    BIC      r12,r12,lr
        0x00002654:    f04f0e02    O...    MOV      lr,#2
        0x00002658:    fa0ef202    ....    LSL      r2,lr,r2
        0x0000265c:    ea4c0202    L...    ORR      r2,r12,r2
        0x00002660:    641a        .d      STR      r2,[r3,#0x40]
        0x00002662:    6803        .h      LDR      r3,[r0,#0]
        0x00002664:    07b2        ..      LSLS     r2,r6,#30
        0x00002666:    0ed2        ..      LSRS     r2,r2,#27
        0x00002668:    fa0bfc02    ....    LSL      r12,r11,r2
        0x0000266c:    2618        .&      MOVS     r6,#0x18
        0x0000266e:    ea23030c    #...    BIC      r3,r3,r12
        0x00002672:    fa06f202    ....    LSL      r2,r6,r2
        0x00002676:    4313        .C      ORRS     r3,r3,r2
        0x00002678:    6003        .`      STR      r3,[r0,#0]
        0x0000267a:    f8d020e0    ...     LDR      r2,[r0,#0xe0]
        0x0000267e:    ea22030c    "...    BIC      r3,r2,r12
        0x00002682:    f8c030e0    ...0    STR      r3,[r0,#0xe0]
        0x00002686:    662f        /f      STR      r7,[r5,#0x60]
        0x00002688:    9a09        ..      LDR      r2,[sp,#0x24]
        0x0000268a:    f3828810    ....    MSR      PRIMASK,r2
        0x0000268e:    f3ef8210    ....    MRS      r2,PRIMASK
        0x00002692:    2673        s&      MOVS     r6,#0x73
        0x00002694:    9201        ..      STR      r2,[sp,#4]
        0x00002696:    662e        .f      STR      r6,[r5,#0x60]
        0x00002698:    b672        r.      CPSID    i
        0x0000269a:    6d6a        jm      LDR      r2,[r5,#0x54]
        0x0000269c:    f42222e0    ".."    BIC      r2,r2,#0x70000
        0x000026a0:    656a        je      STR      r2,[r5,#0x54]
        0x000026a2:    6aea        .j      LDR      r2,[r5,#0x2c]
        0x000026a4:    f02202ff    "...    BIC      r2,r2,#0xff
        0x000026a8:    f042022a    B.*.    ORR      r2,r2,#0x2a
        0x000026ac:    62ea        .b      STR      r2,[r5,#0x2c]
        0x000026ae:    f8d5210c    ...!    LDR      r2,[r5,#0x10c]
        0x000026b2:    f02202ff    "...    BIC      r2,r2,#0xff
        0x000026b6:    f8c5210c    ...!    STR      r2,[r5,#0x10c]
        0x000026ba:    662f        /f      STR      r7,[r5,#0x60]
        0x000026bc:    9a01        ..      LDR      r2,[sp,#4]
        0x000026be:    f3828810    ....    MSR      PRIMASK,r2
        0x000026c2:    662e        .f      STR      r6,[r5,#0x60]
        0x000026c4:    f4096270    ..pb    AND      r2,r9,#0xf00
        0x000026c8:    ea4732c2    G..2    ORR      r2,r7,r2,LSL #15
        0x000026cc:    f00909ff    ....    AND      r9,r9,#0xff
        0x000026d0:    ea490202    I...    ORR      r2,r9,r2
        0x000026d4:    9b0d        ..      LDR      r3,[sp,#0x34]
        0x000026d6:    f44f29e0    O..)    MOV      r9,#0x70000
        0x000026da:    ea094303    ...C    AND      r3,r9,r3,LSL #16
        0x000026de:    431a        .C      ORRS     r2,r2,r3
        0x000026e0:    f8ddc040    ..@.    LDR      r12,[sp,#0x40]
        0x000026e4:    4b4d        MK      LDR      r3,[pc,#308] ; [0x281c] = 0x5c00ff00
        0x000026e6:    f8cda018    ....    STR      r10,[sp,#0x18]
        0x000026ea:    ea0c0303    ....    AND      r3,r12,r3
        0x000026ee:    ea430902    C...    ORR      r9,r3,r2
        0x000026f2:    9101        ..      STR      r1,[sp,#4]
        0x000026f4:    9003        ..      STR      r0,[sp,#0xc]
        0x000026f6:    f8ddb01c    ....    LDR      r11,[sp,#0x1c]
        0x000026fa:    f7fdfd49    ..I.    BL       am_hal_interrupt_master_disable ; 0x190
        0x000026fe:    f8dfa060    ..`.    LDR      r10,[pc,#96] ; [0x2760] = 0x50008000
        0x00002702:    9008        ..      STR      r0,[sp,#0x20]
        0x00002704:    f8ca9110    ....    STR      r9,[r10,#0x110]
        0x00002708:    4935        5I      LDR      r1,[pc,#212] ; [0x27e0] = 0x800009d
        0x0000270a:    9806        ..      LDR      r0,[sp,#0x18]
        0x0000270c:    4788        .G      BLX      r1
        0x0000270e:    f8cab10c    ....    STR      r11,[r10,#0x10c]
        0x00002712:    4642        BF      MOV      r2,r8
        0x00002714:    9903        ..      LDR      r1,[sp,#0xc]
        0x00002716:    9801        ..      LDR      r0,[sp,#4]
        0x00002718:    f7fdfd42    ..B.    BL       __asm___12_am_hal_iom_c_97762dd2__iom_workaround_loop ; 0x1a0
        0x0000271c:    f8ca410c    ...A    STR      r4,[r10,#0x10c]
        0x00002720:    f3ef8010    ....    MRS      r0,PRIMASK
        0x00002724:    9000        ..      STR      r0,[sp,#0]
        0x00002726:    662e        .f      STR      r6,[r5,#0x60]
        0x00002728:    b672        r.      CPSID    i
        0x0000272a:    6d68        hm      LDR      r0,[r5,#0x54]
        0x0000272c:    f42020e0     ..     BIC      r0,r0,#0x70000
        0x00002730:    6568        he      STR      r0,[r5,#0x54]
        0x00002732:    6ae8        .j      LDR      r0,[r5,#0x2c]
        0x00002734:    f02000ff     ...    BIC      r0,r0,#0xff
        0x00002738:    f0400028    @.(.    ORR      r0,r0,#0x28
        0x0000273c:    62e8        .b      STR      r0,[r5,#0x2c]
        0x0000273e:    f8d5010c    ....    LDR      r0,[r5,#0x10c]
        0x00002742:    f02000ff     ...    BIC      r0,r0,#0xff
        0x00002746:    f8c5010c    ....    STR      r0,[r5,#0x10c]
        0x0000274a:    662f        /f      STR      r7,[r5,#0x60]
        0x0000274c:    9800        ..      LDR      r0,[sp,#0]
        0x0000274e:    f3808810    ....    MSR      PRIMASK,r0
        0x00002752:    9808        ..      LDR      r0,[sp,#0x20]
        0x00002754:    f7fdfd20    .. .    BL       am_hal_interrupt_master_set ; 0x198
        0x00002758:    662f        /f      STR      r7,[r5,#0x60]
        0x0000275a:    b011        ..      ADD      sp,sp,#0x44
        0x0000275c:    e8bd8ff0    ....    POP      {r4-r11,pc}
    $d
        0x00002760:    50008000    ...P    DCD    1342210048
        0x00002764:    20495053    SPI     DCD    541675603
        0x00002768:    6e617274    tran    DCD    1851880052
        0x0000276c:    72656673    sfer    DCD    1919247987
        0x00002770:    6f6f7420     too    DCD    1869575200
        0x00002774:    67696220     big    DCD    1734959648
        0x00002778:    0000002e    ....    DCD    46
        0x0000277c:    612f2e2e    ../a    DCD    1630481966
        0x00002780:    61685f6d    m_ha    DCD    1634230125
        0x00002784:    6f695f6c    l_io    DCD    1869176684
        0x00002788:    00632e6d    m.c.    DCD    6499949
        0x0000278c:    00f42400    .$..    DCD    16000000
        0x00002790:    02dc6c00    .l..    DCD    48000000
        0x00002794:    6c756f43    Coul    DCD    1819635523
        0x00002798:    69662064    d fi    DCD    1768300644
        0x0000279c:    6120646e    nd a    DCD    1629512814
        0x000027a0:    6c617620     val    DCD    1818326560
        0x000027a4:    66206469    id f    DCD    1713398889
        0x000027a8:    75716572    requ    DCD    1970365810
        0x000027ac:    79636e65    ency    DCD    2036559461
        0x000027b0:    5320202e    .  S    DCD    1394614318
        0x000027b4:    6c756f68    houl    DCD    1819635560
        0x000027b8:    656e2064    d ne    DCD    1701716068
        0x000027bc:    20726576    ver     DCD    544367990
        0x000027c0:    20746567    get     DCD    544499047
        0x000027c4:    65726568    here    DCD    1701995880
        0x000027c8:    0000002e    ....    DCD    46
        0x000027cc:    612f2e2e    ../a    DCD    1630481966
        0x000027d0:    61685f6d    m_ha    DCD    1634230125
        0x000027d4:    6f695f6c    l_io    DCD    1869176684
        0x000027d8:    00632e6d    m.c.    DCD    6499949
        0x000027dc:    05b8d800    ....    DCD    96000000
        0x000027e0:    0800009d    ....    DCD    134217885
        0x000027e4:    61766e49    Inva    DCD    1635151433
        0x000027e8:    2064696c    lid     DCD    543451500
        0x000027ec:    46206948    Hi F    DCD    1176529224
        0x000027f0:    75716572    requ    DCD    1970365810
        0x000027f4:    79636e65    ency    DCD    2036559461
        0x000027f8:    726f6620     for    DCD    1919903264
        0x000027fc:    4d4f4920     IOM    DCD    1297041696
        0x00002800:    0000002e    ....    DCD    46
        0x00002804:    000f4240    @B..    DCD    1000000
        0x00002808:    4d3f6400    .d?M    DCD    1296000000
        0x0000280c:    00004281    .B..    DCD    17025
        0x00002810:    deadbeef    ....    DCD    3735928559
        0x00002814:    365c0400    ..\6    DCD    912000000
        0x00002818:    40010000    ...@    DCD    1073807360
        0x0000281c:    5c00ff00    ...\    DCD    1543569152
    $t
    i.am_hal_itm_enable
    am_hal_itm_enable
        0x00002820:    480d        .H      LDR      r0,[pc,#52] ; [0x2858] = 0x1000002c
        0x00002822:    6800        .h      LDR      r0,[r0,#0]
        0x00002824:    f0100f01    ....    TST      r0,#1
        0x00002828:    bf18        ..      IT       NE
        0x0000282a:    4770        pG      BXNE     lr
        0x0000282c:    480b        .H      LDR      r0,[pc,#44] ; [0x285c] = 0xe000edfc
        0x0000282e:    6801        .h      LDR      r1,[r0,#0]
        0x00002830:    f0417180    A..q    ORR      r1,r1,#0x1000000
        0x00002834:    6001        .`      STR      r1,[r0,#0]
        0x00002836:    6801        .h      LDR      r1,[r0,#0]
        0x00002838:    f0117f80    ....    TST      r1,#0x1000000
        0x0000283c:    d0fb        ..      BEQ      0x2836 ; am_hal_itm_enable + 22
        0x0000283e:    4909        .I      LDR      r1,[pc,#36] ; [0x2864] = 0xe0000fb0
        0x00002840:    4807        .H      LDR      r0,[pc,#28] ; [0x2860] = 0xc5acce55
        0x00002842:    6008        .`      STR      r0,[r1,#0]
        0x00002844:    4908        .I      LDR      r1,[pc,#32] ; [0x2868] = 0xe0000e40
        0x00002846:    200f        .       MOVS     r0,#0xf
        0x00002848:    6008        .`      STR      r0,[r1,#0]
        0x0000284a:    1748        H.      ASRS     r0,r1,#29
        0x0000284c:    4907        .I      LDR      r1,[pc,#28] ; [0x286c] = 0xe0000e00
        0x0000284e:    6008        .`      STR      r0,[r1,#0]
        0x00002850:    4908        .I      LDR      r1,[pc,#32] ; [0x2874] = 0xe0000e80
        0x00002852:    4807        .H      LDR      r0,[pc,#28] ; [0x2870] = 0x150511
        0x00002854:    6008        .`      STR      r0,[r1,#0]
        0x00002856:    4770        pG      BX       lr
    $d
        0x00002858:    1000002c    ,...    DCD    268435500
        0x0000285c:    e000edfc    ....    DCD    3758157308
        0x00002860:    c5acce55    U...    DCD    3316436565
        0x00002864:    e0000fb0    ....    DCD    3758100400
        0x00002868:    e0000e40    @...    DCD    3758100032
        0x0000286c:    e0000e00    ....    DCD    3758099968
        0x00002870:    00150511    ....    DCD    1377553
        0x00002874:    e0000e80    ....    DCD    3758100096
    $t
    i.am_hal_itm_print
    am_hal_itm_print
        0x00002878:    7802        .x      LDRB     r2,[r0,#0]
        0x0000287a:    2100        .!      MOVS     r1,#0
        0x0000287c:    2a00        .*      CMP      r2,#0
        0x0000287e:    bf08        ..      IT       EQ
        0x00002880:    4770        pG      BXEQ     lr
        0x00002882:    1c49        I.      ADDS     r1,r1,#1
        0x00002884:    5c42        B\      LDRB     r2,[r0,r1]
        0x00002886:    2a00        .*      CMP      r2,#0
        0x00002888:    d1fb        ..      BNE      0x2882 ; am_hal_itm_print + 10
        0x0000288a:    2900        .)      CMP      r1,#0
        0x0000288c:    bf08        ..      IT       EQ
        0x0000288e:    4770        pG      BXEQ     lr
        0x00002890:    f810cb01    ....    LDRB     r12,[r0],#1
        0x00002894:    f04f4260    O.`B    MOV      r2,#0xe0000000
        0x00002898:    6813        .h      LDR      r3,[r2,#0]
        0x0000289a:    2b00        .+      CMP      r3,#0
        0x0000289c:    d0fc        ..      BEQ      0x2898 ; am_hal_itm_print + 32
        0x0000289e:    f882c000    ....    STRB     r12,[r2,#0]
        0x000028a2:    1e49        I.      SUBS     r1,r1,#1
        0x000028a4:    d1f4        ..      BNE      0x2890 ; am_hal_itm_print + 24
        0x000028a6:    4770        pG      BX       lr
    i.am_hal_pwrctrl_bucks_disable
    am_hal_pwrctrl_bucks_disable
        0x000028a8:    4810        .H      LDR      r0,[pc,#64] ; [0x28ec] = 0x40021000
        0x000028aa:    6841        Ah      LDR      r1,[r0,#4]
        0x000028ac:    f0110f02    ....    TST      r1,#2
        0x000028b0:    bf02        ..      ITTT     EQ
        0x000028b2:    6841        Ah      LDREQ    r1,[r0,#4]
        0x000028b4:    f0110f01    ....    TSTEQ    r1,#1
        0x000028b8:    4770        pG      BXEQ     lr
        0x000028ba:    490d        .I      LDR      r1,[pc,#52] ; [0x28f0] = 0x40020000
        0x000028bc:    68c9        .h      LDR      r1,[r1,#0xc]
        0x000028be:    f00101f0    ....    AND      r1,r1,#0xf0
        0x000028c2:    2920         )      CMP      r1,#0x20
        0x000028c4:    bf04        ..      ITT      EQ
        0x000028c6:    6881        .h      LDREQ    r1,[r0,#8]
        0x000028c8:    f5b17f00    ....    CMPEQ    r1,#0x200
        0x000028cc:    6801        .h      LDR      r1,[r0,#0]
        0x000028ce:    bf0f        ..      ITEEE    EQ
        0x000028d0:    f0010105    ....    ANDEQ    r1,r1,#5
        0x000028d4:    f0210102    !...    BICNE    r1,r1,#2
        0x000028d8:    6001        .`      STRNE    r1,[r0,#0]
        0x000028da:    6801        .h      LDRNE    r1,[r0,#0]
        0x000028dc:    bf18        ..      IT       NE
        0x000028de:    f0210101    !...    BICNE    r1,r1,#1
        0x000028e2:    6001        .`      STR      r1,[r0,#0]
        0x000028e4:    f04f000a    O...    MOV      r0,#0xa
        0x000028e8:    f7feb886    ....    B        am_hal_flash_delay ; 0x9f8
    $d
        0x000028ec:    40021000    ...@    DCD    1073876992
        0x000028f0:    40020000    ...@    DCD    1073872896
    $t
    i.am_hal_pwrctrl_bucks_enable
    am_hal_pwrctrl_bucks_enable
        0x000028f4:    480b        .H      LDR      r0,[pc,#44] ; [0x2924] = 0x40021000
        0x000028f6:    6841        Ah      LDR      r1,[r0,#4]
        0x000028f8:    f0110f02    ....    TST      r1,#2
        0x000028fc:    bf1e        ..      ITTT     NE
        0x000028fe:    6841        Ah      LDRNE    r1,[r0,#4]
        0x00002900:    f0110f01    ....    TSTNE    r1,#1
        0x00002904:    4770        pG      BXNE     lr
        0x00002906:    6801        .h      LDR      r1,[r0,#0]
        0x00002908:    f0410102    A...    ORR      r1,r1,#2
        0x0000290c:    6001        .`      STR      r1,[r0,#0]
        0x0000290e:    6801        .h      LDR      r1,[r0,#0]
        0x00002910:    f0410101    A...    ORR      r1,r1,#1
        0x00002914:    6001        .`      STR      r1,[r0,#0]
        0x00002916:    2103        .!      MOVS     r1,#3
        0x00002918:    6842        Bh      LDR      r2,[r0,#4]
        0x0000291a:    ea310202    1...    BICS     r2,r1,r2
        0x0000291e:    d1fb        ..      BNE      0x2918 ; am_hal_pwrctrl_bucks_enable + 36
        0x00002920:    4770        pG      BX       lr
    $d
        0x00002922:    0000        ..      DCW    0
        0x00002924:    40021000    ...@    DCD    1073876992
    $t
    i.am_hal_pwrctrl_bucks_init
    am_hal_pwrctrl_bucks_init
        0x00002928:    480e        .H      LDR      r0,[pc,#56] ; [0x2964] = 0x40021000
        0x0000292a:    6841        Ah      LDR      r1,[r0,#4]
        0x0000292c:    f0110f02    ....    TST      r1,#2
        0x00002930:    f04f0103    O...    MOV      r1,#3
        0x00002934:    bf1c        ..      ITT      NE
        0x00002936:    6842        Bh      LDRNE    r2,[r0,#4]
        0x00002938:    f0120f01    ....    TSTNE    r2,#1
        0x0000293c:    d10b        ..      BNE      0x2956 ; am_hal_pwrctrl_bucks_init + 46
        0x0000293e:    6802        .h      LDR      r2,[r0,#0]
        0x00002940:    f0420202    B...    ORR      r2,r2,#2
        0x00002944:    6002        .`      STR      r2,[r0,#0]
        0x00002946:    6802        .h      LDR      r2,[r0,#0]
        0x00002948:    f0420201    B...    ORR      r2,r2,#1
        0x0000294c:    6002        .`      STR      r2,[r0,#0]
        0x0000294e:    6842        Bh      LDR      r2,[r0,#4]
        0x00002950:    ea310202    1...    BICS     r2,r1,r2
        0x00002954:    d1fb        ..      BNE      0x294e ; am_hal_pwrctrl_bucks_init + 38
        0x00002956:    6842        Bh      LDR      r2,[r0,#4]
        0x00002958:    ea310202    1...    BICS     r2,r1,r2
        0x0000295c:    d1fb        ..      BNE      0x2956 ; am_hal_pwrctrl_bucks_init + 46
        0x0000295e:    2042        B       MOVS     r0,#0x42
        0x00002960:    f7feb84a    ..J.    B        am_hal_flash_delay ; 0x9f8
    $d
        0x00002964:    40021000    ...@    DCD    1073876992
    $t
    i.am_hal_pwrctrl_low_power_init
    am_hal_pwrctrl_low_power_init
        0x00002968:    4804        .H      LDR      r0,[pc,#16] ; [0x297c] = 0x40021000
        0x0000296a:    6981        .i      LDR      r1,[r0,#0x18]
        0x0000296c:    f0410106    A...    ORR      r1,r1,#6
        0x00002970:    6181        .a      STR      r1,[r0,#0x18]
        0x00002972:    6801        .h      LDR      r1,[r0,#0]
        0x00002974:    f0210104    !...    BIC      r1,r1,#4
        0x00002978:    6001        .`      STR      r1,[r0,#0]
        0x0000297a:    4770        pG      BX       lr
    $d
        0x0000297c:    40021000    ...@    DCD    1073876992
    $t
    i.am_hal_pwrctrl_memory_enable
    am_hal_pwrctrl_memory_enable
        0x00002980:    b410        ..      PUSH     {r4}
        0x00002982:    f8dfc170    ..p.    LDR      r12,[pc,#368] ; [0x2af4] = 0x40021000
        0x00002986:    f5b06f00    ...o    CMP      r0,#0x800
        0x0000298a:    d051        Q.      BEQ      0x2a30 ; am_hal_pwrctrl_memory_enable + 176
        0x0000298c:    f5b05fc0    ..._    CMP      r0,#0x1800
        0x00002990:    d054        T.      BEQ      0x2a3c ; am_hal_pwrctrl_memory_enable + 188
        0x00002992:    2801        .(      CMP      r0,#1
        0x00002994:    d057        W.      BEQ      0x2a46 ; am_hal_pwrctrl_memory_enable + 198
        0x00002996:    2803        .(      CMP      r0,#3
        0x00002998:    d05b        [.      BEQ      0x2a52 ; am_hal_pwrctrl_memory_enable + 210
        0x0000299a:    2807        .(      CMP      r0,#7
        0x0000299c:    d05f        _.      BEQ      0x2a5e ; am_hal_pwrctrl_memory_enable + 222
        0x0000299e:    280f        .(      CMP      r0,#0xf
        0x000029a0:    d063        c.      BEQ      0x2a6a ; am_hal_pwrctrl_memory_enable + 234
        0x000029a2:    281f        .(      CMP      r0,#0x1f
        0x000029a4:    d067        g.      BEQ      0x2a76 ; am_hal_pwrctrl_memory_enable + 246
        0x000029a6:    283f        ?(      CMP      r0,#0x3f
        0x000029a8:    d06b        k.      BEQ      0x2a82 ; am_hal_pwrctrl_memory_enable + 258
        0x000029aa:    287f        .(      CMP      r0,#0x7f
        0x000029ac:    d072        r.      BEQ      0x2a94 ; am_hal_pwrctrl_memory_enable + 276
        0x000029ae:    28ff        .(      CMP      r0,#0xff
        0x000029b0:    d076        v.      BEQ      0x2aa0 ; am_hal_pwrctrl_memory_enable + 288
        0x000029b2:    f5a07180    ...q    SUB      r1,r0,#0x100
        0x000029b6:    39ff        .9      SUBS     r1,r1,#0xff
        0x000029b8:    d033        3.      BEQ      0x2a22 ; am_hal_pwrctrl_memory_enable + 162
        0x000029ba:    f5a07140    ..@q    SUB      r1,r0,#0x300
        0x000029be:    39ff        .9      SUBS     r1,r1,#0xff
        0x000029c0:    d074        t.      BEQ      0x2aac ; am_hal_pwrctrl_memory_enable + 300
        0x000029c2:    4a4d        MJ      LDR      r2,[pc,#308] ; [0x2af8] = 0x7ff00
        0x000029c4:    ebb02122    .."!    SUBS     r1,r0,r2,ASR #8
        0x000029c8:    bf08        ..      IT       EQ
        0x000029ca:    f24071ff    @..q    MOVEQ    r1,#0x7ff
        0x000029ce:    d075        u.      BEQ      0x2abc ; am_hal_pwrctrl_memory_enable + 316
        0x000029d0:    f1b04f20    .. O    CMP      r0,#0xa0000000
        0x000029d4:    bf04        ..      ITT      EQ
        0x000029d6:    f04f4120    O. A    MOVEQ    r1,#0xa0000000
        0x000029da:    0a8a        ..      LSREQ    r2,r1,#10
        0x000029dc:    d06e        n.      BEQ      0x2abc ; am_hal_pwrctrl_memory_enable + 316
        0x000029de:    f06f4120    o. A    MVN      r1,#0xa0000000
        0x000029e2:    4288        .B      CMP      r0,r1
        0x000029e4:    d16c        l.      BNE      0x2ac0 ; am_hal_pwrctrl_memory_enable + 320
        0x000029e6:    2100        .!      MOVS     r1,#0
        0x000029e8:    43c3        .C      MVNS     r3,r0
        0x000029ea:    460a        .F      MOV      r2,r1
        0x000029ec:    ea5f2093    _..     LSRS.W   r0,r3,#10
        0x000029f0:    f8dc4010    ...@    LDR      r4,[r12,#0x10]
        0x000029f4:    ea240303    $...    BIC      r3,r4,r3
        0x000029f8:    f8cc3010    ...0    STR      r3,[r12,#0x10]
        0x000029fc:    b129        ).      CBZ      r1,0x2a0a ; am_hal_pwrctrl_memory_enable + 138
        0x000029fe:    bf00        ..      NOP      
        0x00002a00:    f8dc3010    ...0    LDR      r3,[r12,#0x10]
        0x00002a04:    4319        .C      ORRS     r1,r1,r3
        0x00002a06:    f8cc1010    ....    STR      r1,[r12,#0x10]
        0x00002a0a:    2800        .(      CMP      r0,#0
        0x00002a0c:    bf18        ..      IT       NE
        0x00002a0e:    21c7        .!      MOVNE    r1,#0xc7
        0x00002a10:    d05c        \.      BEQ      0x2acc ; am_hal_pwrctrl_memory_enable + 332
        0x00002a12:    bf00        ..      NOP      
        0x00002a14:    f8dc3014    ...0    LDR      r3,[r12,#0x14]
        0x00002a18:    4203        .B      TST      r3,r0
        0x00002a1a:    d055        U.      BEQ      0x2ac8 ; am_hal_pwrctrl_memory_enable + 328
        0x00002a1c:    1e49        I.      SUBS     r1,r1,#1
        0x00002a1e:    d1f9        ..      BNE      0x2a14 ; am_hal_pwrctrl_memory_enable + 148
        0x00002a20:    e062        b.      B        0x2ae8 ; am_hal_pwrctrl_memory_enable + 360
        0x00002a22:    f24011ff    @...    MOV      r1,#0x1ff
        0x00002a26:    f44f63c0    O..c    MOV      r3,#0x600
        0x00002a2a:    020a        ..      LSLS     r2,r1,#8
        0x00002a2c:    0218        ..      LSLS     r0,r3,#8
        0x00002a2e:    e7df        ..      B        0x29f0 ; am_hal_pwrctrl_memory_enable + 112
        0x00002a30:    f44f6100    O..a    MOV      r1,#0x800
        0x00002a34:    004b        K.      LSLS     r3,r1,#1
        0x00002a36:    2220         "      MOVS     r2,#0x20
        0x00002a38:    2040        @       MOVS     r0,#0x40
        0x00002a3a:    e7d9        ..      B        0x29f0 ; am_hal_pwrctrl_memory_enable + 112
        0x00002a3c:    2260        `"      MOVS     r2,#0x60
        0x00002a3e:    f44f51c0    O..Q    MOV      r1,#0x1800
        0x00002a42:    2000        .       MOVS     r0,#0
        0x00002a44:    e7dc        ..      B        0x2a00 ; am_hal_pwrctrl_memory_enable + 128
        0x00002a46:    2101        .!      MOVS     r1,#1
        0x00002a48:    f24073fe    @..s    MOV      r3,#0x7fe
        0x00002a4c:    020a        ..      LSLS     r2,r1,#8
        0x00002a4e:    0218        ..      LSLS     r0,r3,#8
        0x00002a50:    e7ce        ..      B        0x29f0 ; am_hal_pwrctrl_memory_enable + 112
        0x00002a52:    2103        .!      MOVS     r1,#3
        0x00002a54:    f24073fc    @..s    MOV      r3,#0x7fc
        0x00002a58:    020a        ..      LSLS     r2,r1,#8
        0x00002a5a:    0218        ..      LSLS     r0,r3,#8
        0x00002a5c:    e7c8        ..      B        0x29f0 ; am_hal_pwrctrl_memory_enable + 112
        0x00002a5e:    2107        .!      MOVS     r1,#7
        0x00002a60:    f44f63ff    O..c    MOV      r3,#0x7f8
        0x00002a64:    020a        ..      LSLS     r2,r1,#8
        0x00002a66:    0218        ..      LSLS     r0,r3,#8
        0x00002a68:    e7c2        ..      B        0x29f0 ; am_hal_pwrctrl_memory_enable + 112
        0x00002a6a:    210f        .!      MOVS     r1,#0xf
        0x00002a6c:    f44f63fe    O..c    MOV      r3,#0x7f0
        0x00002a70:    020a        ..      LSLS     r2,r1,#8
        0x00002a72:    0218        ..      LSLS     r0,r3,#8
        0x00002a74:    e7bc        ..      B        0x29f0 ; am_hal_pwrctrl_memory_enable + 112
        0x00002a76:    211f        .!      MOVS     r1,#0x1f
        0x00002a78:    f44f63fc    O..c    MOV      r3,#0x7e0
        0x00002a7c:    020a        ..      LSLS     r2,r1,#8
        0x00002a7e:    0218        ..      LSLS     r0,r3,#8
        0x00002a80:    e7b6        ..      B        0x29f0 ; am_hal_pwrctrl_memory_enable + 112
        0x00002a82:    213f        ?!      MOVS     r1,#0x3f
        0x00002a84:    f44f63f8    O..c    MOV      r3,#0x7c0
        0x00002a88:    020a        ..      LSLS     r2,r1,#8
        0x00002a8a:    0218        ..      LSLS     r0,r3,#8
        0x00002a8c:    e7b0        ..      B        0x29f0 ; am_hal_pwrctrl_memory_enable + 112
        0x00002a8e:    e001        ..      B        0x2a94 ; am_hal_pwrctrl_memory_enable + 276
        0x00002a90:    e006        ..      B        0x2aa0 ; am_hal_pwrctrl_memory_enable + 288
        0x00002a92:    e00b        ..      B        0x2aac ; am_hal_pwrctrl_memory_enable + 300
        0x00002a94:    217f        .!      MOVS     r1,#0x7f
        0x00002a96:    f44f63f0    O..c    MOV      r3,#0x780
        0x00002a9a:    020a        ..      LSLS     r2,r1,#8
        0x00002a9c:    0218        ..      LSLS     r0,r3,#8
        0x00002a9e:    e7a7        ..      B        0x29f0 ; am_hal_pwrctrl_memory_enable + 112
        0x00002aa0:    21ff        .!      MOVS     r1,#0xff
        0x00002aa2:    f44f63e0    O..c    MOV      r3,#0x700
        0x00002aa6:    020a        ..      LSLS     r2,r1,#8
        0x00002aa8:    0218        ..      LSLS     r0,r3,#8
        0x00002aaa:    e7a1        ..      B        0x29f0 ; am_hal_pwrctrl_memory_enable + 112
        0x00002aac:    f24031ff    @..1    MOV      r1,#0x3ff
        0x00002ab0:    1c4b        K.      ADDS     r3,r1,#1
        0x00002ab2:    020a        ..      LSLS     r2,r1,#8
        0x00002ab4:    0218        ..      LSLS     r0,r3,#8
        0x00002ab6:    e79b        ..      B        0x29f0 ; am_hal_pwrctrl_memory_enable + 112
        0x00002ab8:    e000        ..      B        0x2abc ; am_hal_pwrctrl_memory_enable + 316
        0x00002aba:    e001        ..      B        0x2ac0 ; am_hal_pwrctrl_memory_enable + 320
        0x00002abc:    2000        .       MOVS     r0,#0
        0x00002abe:    e79f        ..      B        0x2a00 ; am_hal_pwrctrl_memory_enable + 128
        0x00002ac0:    490e        .I      LDR      r1,[pc,#56] ; [0x2afc] = 0xa0001fff
        0x00002ac2:    4288        .B      CMP      r0,r1
        0x00002ac4:    d0fa        ..      BEQ      0x2abc ; am_hal_pwrctrl_memory_enable + 316
        0x00002ac6:    e00f        ..      B        0x2ae8 ; am_hal_pwrctrl_memory_enable + 360
        0x00002ac8:    2900        .)      CMP      r1,#0
        0x00002aca:    dd0d        ..      BLE      0x2ae8 ; am_hal_pwrctrl_memory_enable + 360
        0x00002acc:    2a00        .*      CMP      r2,#0
        0x00002ace:    bf18        ..      IT       NE
        0x00002ad0:    20c7        .       MOVNE    r0,#0xc7
        0x00002ad2:    d00c        ..      BEQ      0x2aee ; am_hal_pwrctrl_memory_enable + 366
        0x00002ad4:    f8dc1014    ....    LDR      r1,[r12,#0x14]
        0x00002ad8:    ea320101    2...    BICS     r1,r2,r1
        0x00002adc:    d002        ..      BEQ      0x2ae4 ; am_hal_pwrctrl_memory_enable + 356
        0x00002ade:    1e40        @.      SUBS     r0,r0,#1
        0x00002ae0:    d1f8        ..      BNE      0x2ad4 ; am_hal_pwrctrl_memory_enable + 340
        0x00002ae2:    e001        ..      B        0x2ae8 ; am_hal_pwrctrl_memory_enable + 360
        0x00002ae4:    2800        .(      CMP      r0,#0
        0x00002ae6:    dc02        ..      BGT      0x2aee ; am_hal_pwrctrl_memory_enable + 366
        0x00002ae8:    bc10        ..      POP      {r4}
        0x00002aea:    2000        .       MOVS     r0,#0
        0x00002aec:    4770        pG      BX       lr
        0x00002aee:    bc10        ..      POP      {r4}
        0x00002af0:    2001        .       MOVS     r0,#1
        0x00002af2:    4770        pG      BX       lr
    $d
        0x00002af4:    40021000    ...@    DCD    1073876992
        0x00002af8:    0007ff00    ....    DCD    524032
        0x00002afc:    a0001fff    ....    DCD    2684362751
    $t
    i.am_hal_pwrctrl_periph_enable
    am_hal_pwrctrl_periph_enable
        0x00002b00:    b538        8.      PUSH     {r3-r5,lr}
        0x00002b02:    0004        ..      MOVS     r4,r0
        0x00002b04:    d002        ..      BEQ      0x2b0c ; am_hal_pwrctrl_periph_enable + 12
        0x00002b06:    1e60        `.      SUBS     r0,r4,#1
        0x00002b08:    4204        .B      TST      r4,r0
        0x00002b0a:    d004        ..      BEQ      0x2b16 ; am_hal_pwrctrl_periph_enable + 22
        0x00002b0c:    a219        ..      ADR      r2,{pc}+0x68 ; 0x2b74
        0x00002b0e:    215c        \!      MOVS     r1,#0x5c
        0x00002b10:    a025        %.      ADR      r0,{pc}+0x98 ; 0x2ba8
        0x00002b12:    f7fdff6f    ..o.    BL       am_hal_debug_error ; 0x9f4
        0x00002b16:    f3ef8010    ....    MRS      r0,PRIMASK
        0x00002b1a:    4d28        (M      LDR      r5,[pc,#160] ; [0x2bbc] = 0x40021000
        0x00002b1c:    9000        ..      STR      r0,[sp,#0]
        0x00002b1e:    b672        r.      CPSID    i
        0x00002b20:    68a8        .h      LDR      r0,[r5,#8]
        0x00002b22:    4320         C      ORRS     r0,r0,r4
        0x00002b24:    60a8        .`      STR      r0,[r5,#8]
        0x00002b26:    9800        ..      LDR      r0,[sp,#0]
        0x00002b28:    f3808810    ....    MSR      PRIMASK,r0
        0x00002b2c:    200e        .       MOVS     r0,#0xe
        0x00002b2e:    f7fdff63    ..c.    BL       am_hal_flash_delay ; 0x9f8
        0x00002b32:    f0140f0e    ....    TST      r4,#0xe
        0x00002b36:    bf18        ..      IT       NE
        0x00002b38:    2004        .       MOVNE    r0,#4
        0x00002b3a:    d003        ..      BEQ      0x2b44 ; am_hal_pwrctrl_periph_enable + 68
        0x00002b3c:    6969        ii      LDR      r1,[r5,#0x14]
        0x00002b3e:    4201        .B      TST      r1,r0
        0x00002b40:    d0fc        ..      BEQ      0x2b3c ; am_hal_pwrctrl_periph_enable + 60
        0x00002b42:    bd38        8.      POP      {r3-r5,pc}
        0x00002b44:    f0140f70    ..p.    TST      r4,#0x70
        0x00002b48:    bf18        ..      IT       NE
        0x00002b4a:    2008        .       MOVNE    r0,#8
        0x00002b4c:    d1f6        ..      BNE      0x2b3c ; am_hal_pwrctrl_periph_enable + 60
        0x00002b4e:    f2401081    @...    MOV      r0,#0x181
        0x00002b52:    4204        .B      TST      r4,r0
        0x00002b54:    bf18        ..      IT       NE
        0x00002b56:    2002        .       MOVNE    r0,#2
        0x00002b58:    d1f0        ..      BNE      0x2b3c ; am_hal_pwrctrl_periph_enable + 60
        0x00002b5a:    f4147f00    ....    TST      r4,#0x200
        0x00002b5e:    bf18        ..      IT       NE
        0x00002b60:    2080        .       MOVNE    r0,#0x80
        0x00002b62:    d1eb        ..      BNE      0x2b3c ; am_hal_pwrctrl_periph_enable + 60
        0x00002b64:    f4146f80    ...o    TST      r4,#0x400
        0x00002b68:    bf14        ..      ITE      NE
        0x00002b6a:    2010        .       MOVNE    r0,#0x10
        0x00002b6c:    f04f30ff    O..0    MOVEQ    r0,#0xffffffff
        0x00002b70:    e7e4        ..      B        0x2b3c ; am_hal_pwrctrl_periph_enable + 60
    $d
        0x00002b72:    0000        ..      DCW    0
        0x00002b74:    6e6e6143    Cann    DCD    1852727619
        0x00002b78:    6520746f    ot e    DCD    1696625775
        0x00002b7c:    6c62616e    nabl    DCD    1818386798
        0x00002b80:    6f6d2065    e mo    DCD    1869422693
        0x00002b84:    74206572    re t    DCD    1948280178
        0x00002b88:    206e6168    han     DCD    544104808
        0x00002b8c:    20656e6f    one     DCD    543518319
        0x00002b90:    69726570    peri    DCD    1769104752
        0x00002b94:    72656870    pher    DCD    1919248496
        0x00002b98:    61206c61    al a    DCD    1629514849
        0x00002b9c:    20612074    t a     DCD    543236212
        0x00002ba0:    656d6974    time    DCD    1701669236
        0x00002ba4:    0000002e    ....    DCD    46
        0x00002ba8:    612f2e2e    ../a    DCD    1630481966
        0x00002bac:    61685f6d    m_ha    DCD    1634230125
        0x00002bb0:    77705f6c    l_pw    DCD    2003853164
        0x00002bb4:    72746372    rctr    DCD    1920230258
        0x00002bb8:    00632e6c    l.c.    DCD    6499948
        0x00002bbc:    40021000    ...@    DCD    1073876992
    $t
    i.am_hal_queue_item_add
    am_hal_queue_item_add
        0x00002bc0:    e92d41f0    -..A    PUSH     {r4-r8,lr}
        0x00002bc4:    4604        .F      MOV      r4,r0
        0x00002bc6:    6900        .i      LDR      r0,[r0,#0x10]
        0x00002bc8:    2600        .&      MOVS     r6,#0
        0x00002bca:    fb00f502    ....    MUL      r5,r0,r2
        0x00002bce:    460f        .F      MOV      r7,r1
        0x00002bd0:    f7fdfade    ....    BL       am_hal_interrupt_master_disable ; 0x190
        0x00002bd4:    4603        .F      MOV      r3,r0
        0x00002bd6:    e9d41002    ....    LDRD     r1,r0,[r4,#8]
        0x00002bda:    1a40        @.      SUBS     r0,r0,r1
        0x00002bdc:    42a8        .B      CMP      r0,r5
        0x00002bde:    d338        8.      BCC      0x2c52 ; am_hal_queue_item_add + 146
        0x00002be0:    b39d        ..      CBZ      r5,0x2c4a ; am_hal_queue_item_add + 138
        0x00002be2:    1e78        x.      SUBS     r0,r7,#1
        0x00002be4:    f0150f01    ....    TST      r5,#1
        0x00002be8:    d00e        ..      BEQ      0x2c08 ; am_hal_queue_item_add + 72
        0x00002bea:    f8d4c000    ....    LDR      r12,[r4,#0]
        0x00002bee:    6962        bi      LDR      r2,[r4,#0x14]
        0x00002bf0:    f8101f01    ....    LDRB     r1,[r0,#1]!
        0x00002bf4:    f802100c    ....    STRB     r1,[r2,r12]
        0x00002bf8:    6821        !h      LDR      r1,[r4,#0]
        0x00002bfa:    68e2        .h      LDR      r2,[r4,#0xc]
        0x00002bfc:    1c49        I.      ADDS     r1,r1,#1
        0x00002bfe:    fbb1fcf2    ....    UDIV     r12,r1,r2
        0x00002c02:    fb02111c    ....    MLS      r1,r2,r12,r1
        0x00002c06:    6021        !`      STR      r1,[r4,#0]
        0x00002c08:    0869        i.      LSRS     r1,r5,#1
        0x00002c0a:    d01e        ..      BEQ      0x2c4a ; am_hal_queue_item_add + 138
        0x00002c0c:    f8d4c014    ....    LDR      r12,[r4,#0x14]
        0x00002c10:    6826        &h      LDR      r6,[r4,#0]
        0x00002c12:    7842        Bx      LDRB     r2,[r0,#1]
        0x00002c14:    f80c2006    ...     STRB     r2,[r12,r6]
        0x00002c18:    6822        "h      LDR      r2,[r4,#0]
        0x00002c1a:    f8d4c00c    ....    LDR      r12,[r4,#0xc]
        0x00002c1e:    1c52        R.      ADDS     r2,r2,#1
        0x00002c20:    fbb2f6fc    ....    UDIV     r6,r2,r12
        0x00002c24:    fb0c2216    ..."    MLS      r2,r12,r6,r2
        0x00002c28:    6022        "`      STR      r2,[r4,#0]
        0x00002c2a:    6966        fi      LDR      r6,[r4,#0x14]
        0x00002c2c:    f810cf02    ....    LDRB     r12,[r0,#2]!
        0x00002c30:    f806c002    ....    STRB     r12,[r6,r2]
        0x00002c34:    6822        "h      LDR      r2,[r4,#0]
        0x00002c36:    f8d4c00c    ....    LDR      r12,[r4,#0xc]
        0x00002c3a:    1c52        R.      ADDS     r2,r2,#1
        0x00002c3c:    fbb2f6fc    ....    UDIV     r6,r2,r12
        0x00002c40:    fb0c2216    ..."    MLS      r2,r12,r6,r2
        0x00002c44:    6022        "`      STR      r2,[r4,#0]
        0x00002c46:    1e49        I.      SUBS     r1,r1,#1
        0x00002c48:    d1e0        ..      BNE      0x2c0c ; am_hal_queue_item_add + 76
        0x00002c4a:    68a0        .h      LDR      r0,[r4,#8]
        0x00002c4c:    2601        .&      MOVS     r6,#1
        0x00002c4e:    4428        (D      ADD      r0,r0,r5
        0x00002c50:    60a0        .`      STR      r0,[r4,#8]
        0x00002c52:    4618        .F      MOV      r0,r3
        0x00002c54:    f7fdfaa0    ....    BL       am_hal_interrupt_master_set ; 0x198
        0x00002c58:    4630        0F      MOV      r0,r6
        0x00002c5a:    e8bd81f0    ....    POP      {r4-r8,pc}
    i.am_hal_rtc_osc_disable
    am_hal_rtc_osc_disable
        0x00002c5e:    f04f2040    O.@     MOV      r0,#0x40004000
        0x00002c62:    6d01        .m      LDR      r1,[r0,#0x50]
        0x00002c64:    f0410110    A...    ORR      r1,r1,#0x10
        0x00002c68:    6501        .e      STR      r1,[r0,#0x50]
        0x00002c6a:    4770        pG      BX       lr
    i.am_hal_rtc_osc_select
    am_hal_rtc_osc_select
        0x00002c6c:    f04f2140    O.@!    MOV      r1,#0x40004000
        0x00002c70:    2800        .(      CMP      r0,#0
        0x00002c72:    68c8        .h      LDR      r0,[r1,#0xc]
        0x00002c74:    bf14        ..      ITE      NE
        0x00002c76:    f0400080    @...    ORRNE    r0,r0,#0x80
        0x00002c7a:    f0200080     ...    BICEQ    r0,r0,#0x80
        0x00002c7e:    60c8        .`      STR      r0,[r1,#0xc]
        0x00002c80:    4770        pG      BX       lr
        0x00002c82:    0000        ..      MOVS     r0,r0
    i.am_hal_sysctrl_sleep
    am_hal_sysctrl_sleep
        0x00002c84:    b5f8        ..      PUSH     {r3-r7,lr}
        0x00002c86:    4604        .F      MOV      r4,r0
        0x00002c88:    f7fdfa82    ....    BL       am_hal_interrupt_master_disable ; 0x190
        0x00002c8c:    4934        4I      LDR      r1,[pc,#208] ; [0x2d60] = 0xe000ed10
        0x00002c8e:    4605        .F      MOV      r5,r0
        0x00002c90:    b12c        ,.      CBZ      r4,0x2c9e ; am_hal_sysctrl_sleep + 26
        0x00002c92:    4834        4H      LDR      r0,[pc,#208] ; [0x2d64] = 0x40020000
        0x00002c94:    f8d02250    ..P"    LDR      r2,[r0,#0x250]
        0x00002c98:    f0120f01    ....    TST      r2,#1
        0x00002c9c:    d009        ..      BEQ      0x2cb2 ; am_hal_sysctrl_sleep + 46
        0x00002c9e:    6808        .h      LDR      r0,[r1,#0]
        0x00002ca0:    f0200004     ...    BIC      r0,r0,#4
        0x00002ca4:    6008        .`      STR      r0,[r1,#0]
        0x00002ca6:    bf30        0.      WFI      
        0x00002ca8:    4628        (F      MOV      r0,r5
        0x00002caa:    e8bd40f8    ...@    POP      {r3-r7,lr}
        0x00002cae:    f7fdba73    ..s.    B        am_hal_interrupt_master_set ; 0x198
        0x00002cb2:    680a        .h      LDR      r2,[r1,#0]
        0x00002cb4:    f0420204    B...    ORR      r2,r2,#4
        0x00002cb8:    600a        .`      STR      r2,[r1,#0]
        0x00002cba:    68c0        .h      LDR      r0,[r0,#0xc]
        0x00002cbc:    f00000f0    ....    AND      r0,r0,#0xf0
        0x00002cc0:    2820         (      CMP      r0,#0x20
        0x00002cc2:    bf14        ..      ITE      NE
        0x00002cc4:    2000        .       MOVNE    r0,#0
        0x00002cc6:    2002        .       MOVEQ    r0,#2
        0x00002cc8:    4c27        'L      LDR      r4,[pc,#156] ; [0x2d68] = 0x100000c4
        0x00002cca:    60e0        .`      STR      r0,[r4,#0xc]
        0x00002ccc:    6861        ah      LDR      r1,[r4,#4]
        0x00002cce:    1e49        I.      SUBS     r1,r1,#1
        0x00002cd0:    2903        .)      CMP      r1,#3
        0x00002cd2:    bf94        ..      ITE      LS
        0x00002cd4:    2104        .!      MOVLS    r1,#4
        0x00002cd6:    2100        .!      MOVHI    r1,#0
        0x00002cd8:    4301        .C      ORRS     r1,r1,r0
        0x00002cda:    4824        $H      LDR      r0,[pc,#144] ; [0x2d6c] = 0x40021000
        0x00002cdc:    60e1        .`      STR      r1,[r4,#0xc]
        0x00002cde:    6802        .h      LDR      r2,[r0,#0]
        0x00002ce0:    f0120203    ....    ANDS     r2,r2,#3
        0x00002ce4:    bf18        ..      IT       NE
        0x00002ce6:    2201        ."      MOVNE    r2,#1
        0x00002ce8:    4311        .C      ORRS     r1,r1,r2
        0x00002cea:    60e1        .`      STR      r1,[r4,#0xc]
        0x00002cec:    6880        .h      LDR      r0,[r0,#8]
        0x00002cee:    f24052ff    @..R    MOV      r2,#0x5ff
        0x00002cf2:    4210        .B      TST      r0,r2
        0x00002cf4:    bf14        ..      ITE      NE
        0x00002cf6:    2000        .       MOVNE    r0,#0
        0x00002cf8:    2008        .       MOVEQ    r0,#8
        0x00002cfa:    4308        .C      ORRS     r0,r0,r1
        0x00002cfc:    2600        .&      MOVS     r6,#0
        0x00002cfe:    2101        .!      MOVS     r1,#1
        0x00002d00:    60e0        .`      STR      r0,[r4,#0xc]
        0x00002d02:    280f        .(      CMP      r0,#0xf
        0x00002d04:    bf1c        ..      ITT      NE
        0x00002d06:    bf30        0.      WFINE    
        0x00002d08:    7021        !p      STRBNE   r1,[r4,#0]
        0x00002d0a:    d1cd        ..      BNE      0x2ca8 ; am_hal_sysctrl_sleep + 36
        0x00002d0c:    6860        `h      LDR      r0,[r4,#4]
        0x00002d0e:    f04f31ff    O..1    MOV      r1,#0xffffffff
        0x00002d12:    1e40        @.      SUBS     r0,r0,#1
        0x00002d14:    9000        ..      STR      r0,[sp,#0]
        0x00002d16:    f7fdfe03    ....    BL       am_hal_ctimer_clear ; 0x920
        0x00002d1a:    2300        .#      MOVS     r3,#0
        0x00002d1c:    f04f1201    O...    MOV      r2,#0x10001
        0x00002d20:    1e59        Y.      SUBS     r1,r3,#1
        0x00002d22:    9800        ..      LDR      r0,[sp,#0]
        0x00002d24:    f7fdfe10    ....    BL       am_hal_ctimer_period_set ; 0x948
        0x00002d28:    f7fffdbe    ....    BL       am_hal_pwrctrl_bucks_disable ; 0x28a8
        0x00002d2c:    bf30        0.      WFI      
        0x00002d2e:    2107        .!      MOVS     r1,#7
        0x00002d30:    2231        1"      MOVS     r2,#0x31
        0x00002d32:    4608        .F      MOV      r0,r1
        0x00002d34:    f001f8ea    ....    BL       setBuckZX ; 0x3f0c
        0x00002d38:    201c        .       MOVS     r0,#0x1c
        0x00002d3a:    f7fdfe5d    ..].    BL       am_hal_flash_delay ; 0x9f8
        0x00002d3e:    f7fffdd9    ....    BL       am_hal_pwrctrl_bucks_enable ; 0x28f4
        0x00002d42:    6860        `h      LDR      r0,[r4,#4]
        0x00002d44:    1e40        @.      SUBS     r0,r0,#1
        0x00002d46:    9000        ..      STR      r0,[sp,#0]
        0x00002d48:    7026        &p      STRB     r6,[r4,#0]
        0x00002d4a:    60a6        .`      STR      r6,[r4,#8]
        0x00002d4c:    204c        L       MOVS     r0,#0x4c
        0x00002d4e:    f7fdfe53    ..S.    BL       am_hal_flash_delay ; 0x9f8
        0x00002d52:    f04f31ff    O..1    MOV      r1,#0xffffffff
        0x00002d56:    9800        ..      LDR      r0,[sp,#0]
        0x00002d58:    f7fdfe34    ..4.    BL       am_hal_ctimer_start ; 0x9c4
        0x00002d5c:    e7a4        ..      B        0x2ca8 ; am_hal_sysctrl_sleep + 36
    $d
        0x00002d5e:    0000        ..      DCW    0
        0x00002d60:    e000ed10    ....    DCD    3758157072
        0x00002d64:    40020000    ...@    DCD    1073872896
        0x00002d68:    100000c4    ....    DCD    268435652
        0x00002d6c:    40021000    ...@    DCD    1073876992
    $t
    i.am_hal_tpiu_enable
    am_hal_tpiu_enable
        0x00002d70:    e92d41f0    -..A    PUSH     {r4-r8,lr}
        0x00002d74:    4c1b        .L      LDR      r4,[pc,#108] ; [0x2de4] = 0xe0040000
        0x00002d76:    2700        .'      MOVS     r7,#0
        0x00002d78:    6805        .h      LDR      r5,[r0,#0]
        0x00002d7a:    f8c47304    ...s    STR      r7,[r4,#0x304]
        0x00002d7e:    4e1a        .N      LDR      r6,[pc,#104] ; [0x2de8] = 0x40020000
        0x00002d80:    2101        .!      MOVS     r1,#1
        0x00002d82:    b30d        ..      CBZ      r5,0x2dc8 ; am_hal_tpiu_enable + 88
        0x00002d84:    6061        a`      STR      r1,[r4,#4]
        0x00002d86:    4919        .I      LDR      r1,[pc,#100] ; [0x2dec] = 0x1da381
        0x00002d88:    f5a54061    ..a@    SUB      r0,r5,#0xe100
        0x00002d8c:    4288        .B      CMP      r0,r1
        0x00002d8e:    bf28        (.      IT       CS
        0x00002d90:    4d17        .M      LDRCS    r5,[pc,#92] ; [0x2df0] = 0xf4240
        0x00002d92:    f7fdfd7d    ..}.    BL       am_hal_clkgen_sysclk_get ; 0x890
        0x00002d96:    f1b03fff    ...?    CMP      r0,#0xffffffff
        0x00002d9a:    bf1d        ..      ITTTE    NE
        0x00002d9c:    08c0        ..      LSRNE    r0,r0,#3
        0x00002d9e:    fbb0f0f5    ....    UDIVNE   r0,r0,r5
        0x00002da2:    1e40        @.      SUBNE    r0,r0,#1
        0x00002da4:    2005        .       MOVEQ    r0,#5
        0x00002da6:    b280        ..      UXTH     r0,r0
        0x00002da8:    6120         a      STR      r0,[r4,#0x10]
        0x00002daa:    2002        .       MOVS     r0,#2
        0x00002dac:    f8c400f0    ....    STR      r0,[r4,#0xf0]
        0x00002db0:    4810        .H      LDR      r0,[pc,#64] ; [0x2df4] = 0xe0040f00
        0x00002db2:    6007        .`      STR      r7,[r0,#0]
        0x00002db4:    f2402001    @..     MOV      r0,#0x201
        0x00002db8:    f8c60250    ..P.    STR      r0,[r6,#0x250]
        0x00002dbc:    e8bd41f0    ...A    POP      {r4-r8,lr}
        0x00002dc0:    f44f7047    O.Gp    MOV      r0,#0x31c
        0x00002dc4:    f7fdbe18    ....    B        am_hal_flash_delay ; 0x9f8
        0x00002dc8:    6902        .i      LDR      r2,[r0,#0x10]
        0x00002dca:    6122        "a      STR      r2,[r4,#0x10]
        0x00002dcc:    6882        .h      LDR      r2,[r0,#8]
        0x00002dce:    f8c420f0    ...     STR      r2,[r4,#0xf0]
        0x00002dd2:    7b02        .{      LDRB     r2,[r0,#0xc]
        0x00002dd4:    1e52        R.      SUBS     r2,r2,#1
        0x00002dd6:    4091        .@      LSLS     r1,r1,r2
        0x00002dd8:    6061        a`      STR      r1,[r4,#4]
        0x00002dda:    f8d61250    ..P.    LDR      r1,[r6,#0x250]
        0x00002dde:    6840        @h      LDR      r0,[r0,#4]
        0x00002de0:    4308        .C      ORRS     r0,r0,r1
        0x00002de2:    e7e9        ..      B        0x2db8 ; am_hal_tpiu_enable + 72
    $d
        0x00002de4:    e0040000    ....    DCD    3758358528
        0x00002de8:    40020000    ...@    DCD    1073872896
        0x00002dec:    001da381    ....    DCD    1942401
        0x00002df0:    000f4240    @B..    DCD    1000000
        0x00002df4:    e0040f00    ....    DCD    3758362368
    $t
    i.am_hal_vcomp_disable
    am_hal_vcomp_disable
        0x00002df8:    4901        .I      LDR      r1,[pc,#4] ; [0x2e00] = 0x4000c000
        0x00002dfa:    2037        7       MOVS     r0,#0x37
        0x00002dfc:    6088        .`      STR      r0,[r1,#8]
        0x00002dfe:    4770        pG      BX       lr
    $d
        0x00002e00:    4000c000    ...@    DCD    1073790976
    $t
    i.am_util_stdio_printf
    am_util_stdio_printf
        0x00002e04:    b40f        ..      PUSH     {r0-r3}
        0x00002e06:    b538        8.      PUSH     {r3-r5,lr}
        0x00002e08:    a805        ..      ADD      r0,sp,#0x14
        0x00002e0a:    9000        ..      STR      r0,[sp,#0]
        0x00002e0c:    4807        .H      LDR      r0,[pc,#28] ; [0x2e2c] = 0x100004e0
        0x00002e0e:    9a00        ..      LDR      r2,[sp,#0]
        0x00002e10:    9904        ..      LDR      r1,[sp,#0x10]
        0x00002e12:    f000f825    ..%.    BL       am_util_stdio_vsprintf ; 0x2e60
        0x00002e16:    4604        .F      MOV      r4,r0
        0x00002e18:    2000        .       MOVS     r0,#0
        0x00002e1a:    9000        ..      STR      r0,[sp,#0]
        0x00002e1c:    4803        .H      LDR      r0,[pc,#12] ; [0x2e2c] = 0x100004e0
        0x00002e1e:    4904        .I      LDR      r1,[pc,#16] ; [0x2e30] = 0x10000024
        0x00002e20:    6809        .h      LDR      r1,[r1,#0]
        0x00002e22:    4788        .G      BLX      r1
        0x00002e24:    4620         F      MOV      r0,r4
        0x00002e26:    bc38        8.      POP      {r3-r5}
        0x00002e28:    f85dfb14    ]...    LDR      pc,[sp],#0x14
    $d
        0x00002e2c:    100004e0    ....    DCD    268436704
        0x00002e30:    10000024    $...    DCD    268435492
    $t
    i.am_util_stdio_printf_init
    am_util_stdio_printf_init
        0x00002e34:    4901        .I      LDR      r1,[pc,#4] ; [0x2e3c] = 0x10000024
        0x00002e36:    6008        .`      STR      r0,[r1,#0]
        0x00002e38:    4770        pG      BX       lr
    $d
        0x00002e3a:    0000        ..      DCW    0
        0x00002e3c:    10000024    $...    DCD    268435492
    $t
    i.am_util_stdio_terminal_clear
    am_util_stdio_terminal_clear
        0x00002e40:    b510        ..      PUSH     {r4,lr}
        0x00002e42:    a002        ..      ADR      r0,{pc}+0xa ; 0x2e4c
        0x00002e44:    f7ffffde    ....    BL       am_util_stdio_printf ; 0x2e04
        0x00002e48:    bd10        ..      POP      {r4,pc}
    $d
        0x00002e4a:    0000        ..      DCW    0
        0x00002e4c:    0a0a0a0a    ....    DCD    168430090
        0x00002e50:    0a0a0a0a    ....    DCD    168430090
        0x00002e54:    0a0a0a0a    ....    DCD    168430090
        0x00002e58:    0a0a0a0a    ....    DCD    168430090
        0x00002e5c:    00000a0a    ....    DCD    2570
    $t
    i.am_util_stdio_vsprintf
    am_util_stdio_vsprintf
        0x00002e60:    e92d4ff7    -..O    PUSH     {r0-r2,r4-r11,lr}
        0x00002e64:    ed2d8b02    -...    VPUSH    {d8}
        0x00002e68:    b08a        ..      SUB      sp,sp,#0x28
        0x00002e6a:    4604        .F      MOV      r4,r0
        0x00002e6c:    460d        .F      MOV      r5,r1
        0x00002e6e:    f04f0900    O...    MOV      r9,#0
        0x00002e72:    2000        .       MOVS     r0,#0
        0x00002e74:    9000        ..      STR      r0,[sp,#0]
        0x00002e76:    e1b9        ..      B        0x31ec ; am_util_stdio_vsprintf + 908
        0x00002e78:    2006        .       MOVS     r0,#6
        0x00002e7a:    9006        ..      STR      r0,[sp,#0x18]
        0x00002e7c:    7828        (x      LDRB     r0,[r5,#0]
        0x00002e7e:    2825        %(      CMP      r0,#0x25
        0x00002e80:    d012        ..      BEQ      0x2ea8 ; am_util_stdio_vsprintf + 72
        0x00002e82:    b16c        l.      CBZ      r4,0x2ea0 ; am_util_stdio_vsprintf + 64
        0x00002e84:    7828        (x      LDRB     r0,[r5,#0]
        0x00002e86:    280a        .(      CMP      r0,#0xa
        0x00002e88:    d107        ..      BNE      0x2e9a ; am_util_stdio_vsprintf + 58
        0x00002e8a:    48de        .H      LDR      r0,[pc,#888] ; [0x3204] = 0x10000028
        0x00002e8c:    7800        .x      LDRB     r0,[r0,#0]
        0x00002e8e:    b120         .      CBZ      r0,0x2e9a ; am_util_stdio_vsprintf + 58
        0x00002e90:    200d        .       MOVS     r0,#0xd
        0x00002e92:    f8040b01    ....    STRB     r0,[r4],#1
        0x00002e96:    f1090901    ....    ADD      r9,r9,#1
        0x00002e9a:    7828        (x      LDRB     r0,[r5,#0]
        0x00002e9c:    f8040b01    ....    STRB     r0,[r4],#1
        0x00002ea0:    1c6d        m.      ADDS     r5,r5,#1
        0x00002ea2:    f1090901    ....    ADD      r9,r9,#1
        0x00002ea6:    e1a1        ..      B        0x31ec ; am_util_stdio_vsprintf + 908
        0x00002ea8:    1c6d        m.      ADDS     r5,r5,#1
        0x00002eaa:    2000        .       MOVS     r0,#0
        0x00002eac:    9002        ..      STR      r0,[sp,#8]
        0x00002eae:    9003        ..      STR      r0,[sp,#0xc]
        0x00002eb0:    2020                MOVS     r0,#0x20
        0x00002eb2:    9004        ..      STR      r0,[sp,#0x10]
        0x00002eb4:    7828        (x      LDRB     r0,[r5,#0]
        0x00002eb6:    2830        0(      CMP      r0,#0x30
        0x00002eb8:    d101        ..      BNE      0x2ebe ; am_util_stdio_vsprintf + 94
        0x00002eba:    9004        ..      STR      r0,[sp,#0x10]
        0x00002ebc:    1c6d        m.      ADDS     r5,r5,#1
        0x00002ebe:    a907        ..      ADD      r1,sp,#0x1c
        0x00002ec0:    4628        (F      MOV      r0,r5
        0x00002ec2:    f000f9b3    ....    BL       decstr_to_int ; 0x322c
        0x00002ec6:    4606        .F      MOV      r6,r0
        0x00002ec8:    9807        ..      LDR      r0,[sp,#0x1c]
        0x00002eca:    4405        .D      ADD      r5,r5,r0
        0x00002ecc:    7828        (x      LDRB     r0,[r5,#0]
        0x00002ece:    2873        s(      CMP      r0,#0x73
        0x00002ed0:    d002        ..      BEQ      0x2ed8 ; am_util_stdio_vsprintf + 120
        0x00002ed2:    2e00        ..      CMP      r6,#0
        0x00002ed4:    da00        ..      BGE      0x2ed8 ; am_util_stdio_vsprintf + 120
        0x00002ed6:    4276        vB      RSBS     r6,r6,#0
        0x00002ed8:    7828        (x      LDRB     r0,[r5,#0]
        0x00002eda:    282e        .(      CMP      r0,#0x2e
        0x00002edc:    d107        ..      BNE      0x2eee ; am_util_stdio_vsprintf + 142
        0x00002ede:    1c6d        m.      ADDS     r5,r5,#1
        0x00002ee0:    a907        ..      ADD      r1,sp,#0x1c
        0x00002ee2:    4628        (F      MOV      r0,r5
        0x00002ee4:    f000f9a2    ....    BL       decstr_to_int ; 0x322c
        0x00002ee8:    9006        ..      STR      r0,[sp,#0x18]
        0x00002eea:    9807        ..      LDR      r0,[sp,#0x1c]
        0x00002eec:    4405        .D      ADD      r5,r5,r0
        0x00002eee:    7828        (x      LDRB     r0,[r5,#0]
        0x00002ef0:    286c        l(      CMP      r0,#0x6c
        0x00002ef2:    d106        ..      BNE      0x2f02 ; am_util_stdio_vsprintf + 162
        0x00002ef4:    1c6d        m.      ADDS     r5,r5,#1
        0x00002ef6:    7828        (x      LDRB     r0,[r5,#0]
        0x00002ef8:    286c        l(      CMP      r0,#0x6c
        0x00002efa:    d102        ..      BNE      0x2f02 ; am_util_stdio_vsprintf + 162
        0x00002efc:    1c6d        m.      ADDS     r5,r5,#1
        0x00002efe:    2001        .       MOVS     r0,#1
        0x00002f00:    9002        ..      STR      r0,[sp,#8]
        0x00002f02:    7828        (x      LDRB     r0,[r5,#0]
        0x00002f04:    2866        f(      CMP      r0,#0x66
        0x00002f06:    d06f        o.      BEQ      0x2fe8 ; am_util_stdio_vsprintf + 392
        0x00002f08:    dc08        ..      BGT      0x2f1c ; am_util_stdio_vsprintf + 188
        0x00002f0a:    2846        F(      CMP      r0,#0x46
        0x00002f0c:    d06d        m.      BEQ      0x2fea ; am_util_stdio_vsprintf + 394
        0x00002f0e:    2858        X(      CMP      r0,#0x58
        0x00002f10:    d05c        \.      BEQ      0x2fcc ; am_util_stdio_vsprintf + 364
        0x00002f12:    2863        c(      CMP      r0,#0x63
        0x00002f14:    d00b        ..      BEQ      0x2f2e ; am_util_stdio_vsprintf + 206
        0x00002f16:    2864        d(      CMP      r0,#0x64
        0x00002f18:    d168        h.      BNE      0x2fec ; am_util_stdio_vsprintf + 396
        0x00002f1a:    e0c3        ..      B        0x30a4 ; am_util_stdio_vsprintf + 580
        0x00002f1c:    2869        i(      CMP      r0,#0x69
        0x00002f1e:    d07d        }.      BEQ      0x301c ; am_util_stdio_vsprintf + 444
        0x00002f20:    2873        s(      CMP      r0,#0x73
        0x00002f22:    d011        ..      BEQ      0x2f48 ; am_util_stdio_vsprintf + 232
        0x00002f24:    2875        u(      CMP      r0,#0x75
        0x00002f26:    d07a        z.      BEQ      0x301e ; am_util_stdio_vsprintf + 446
        0x00002f28:    2878        x(      CMP      r0,#0x78
        0x00002f2a:    d1f5        ..      BNE      0x2f18 ; am_util_stdio_vsprintf + 184
        0x00002f2c:    e04b        K.      B        0x2fc6 ; am_util_stdio_vsprintf + 358
        0x00002f2e:    980e        ..      LDR      r0,[sp,#0x38]
        0x00002f30:    f8101b04    ....    LDRB     r1,[r0],#4
        0x00002f34:    900e        ..      STR      r0,[sp,#0x38]
        0x00002f36:    b2c8        ..      UXTB     r0,r1
        0x00002f38:    9005        ..      STR      r0,[sp,#0x14]
        0x00002f3a:    b114        ..      CBZ      r4,0x2f42 ; am_util_stdio_vsprintf + 226
        0x00002f3c:    9805        ..      LDR      r0,[sp,#0x14]
        0x00002f3e:    f8040b01    ....    STRB     r0,[r4],#1
        0x00002f42:    f1090901    ....    ADD      r9,r9,#1
        0x00002f46:    e14e        N.      B        0x31e6 ; am_util_stdio_vsprintf + 902
        0x00002f48:    980e        ..      LDR      r0,[sp,#0x38]
        0x00002f4a:    f850bb04    P...    LDR      r11,[r0],#4
        0x00002f4e:    900e        ..      STR      r0,[sp,#0x38]
        0x00002f50:    4658        XF      MOV      r0,r11
        0x00002f52:    f001f817    ....    BL       simple_strlen ; 0x3f84
        0x00002f56:    9000        ..      STR      r0,[sp,#0]
        0x00002f58:    2e00        ..      CMP      r6,#0
        0x00002f5a:    dd11        ..      BLE      0x2f80 ; am_util_stdio_vsprintf + 288
        0x00002f5c:    9800        ..      LDR      r0,[sp,#0]
        0x00002f5e:    42b0        .B      CMP      r0,r6
        0x00002f60:    d20e        ..      BCS      0x2f80 ; am_util_stdio_vsprintf + 288
        0x00002f62:    9800        ..      LDR      r0,[sp,#0]
        0x00002f64:    1a36        6.      SUBS     r6,r6,r0
        0x00002f66:    4632        2F      MOV      r2,r6
        0x00002f68:    4620         F      MOV      r0,r4
        0x00002f6a:    9904        ..      LDR      r1,[sp,#0x10]
        0x00002f6c:    f000ffbd    ....    BL       padbuffer ; 0x3eea
        0x00002f70:    4606        .F      MOV      r6,r0
        0x00002f72:    b10c        ..      CBZ      r4,0x2f78 ; am_util_stdio_vsprintf + 280
        0x00002f74:    4630        0F      MOV      r0,r6
        0x00002f76:    e000        ..      B        0x2f7a ; am_util_stdio_vsprintf + 282
        0x00002f78:    2000        .       MOVS     r0,#0
        0x00002f7a:    4404        .D      ADD      r4,r4,r0
        0x00002f7c:    44b1        .D      ADD      r9,r9,r6
        0x00002f7e:    2600        .&      MOVS     r6,#0
        0x00002f80:    e008        ..      B        0x2f94 ; am_util_stdio_vsprintf + 308
        0x00002f82:    b11c        ..      CBZ      r4,0x2f8c ; am_util_stdio_vsprintf + 300
        0x00002f84:    f89b0000    ....    LDRB     r0,[r11,#0]
        0x00002f88:    f8040b01    ....    STRB     r0,[r4],#1
        0x00002f8c:    f10b0b01    ....    ADD      r11,r11,#1
        0x00002f90:    f1090901    ....    ADD      r9,r9,#1
        0x00002f94:    f89b0000    ....    LDRB     r0,[r11,#0]
        0x00002f98:    2800        .(      CMP      r0,#0
        0x00002f9a:    d1f2        ..      BNE      0x2f82 ; am_util_stdio_vsprintf + 290
        0x00002f9c:    b196        ..      CBZ      r6,0x2fc4 ; am_util_stdio_vsprintf + 356
        0x00002f9e:    4276        vB      RSBS     r6,r6,#0
        0x00002fa0:    9800        ..      LDR      r0,[sp,#0]
        0x00002fa2:    42b0        .B      CMP      r0,r6
        0x00002fa4:    d20e        ..      BCS      0x2fc4 ; am_util_stdio_vsprintf + 356
        0x00002fa6:    9800        ..      LDR      r0,[sp,#0]
        0x00002fa8:    1a36        6.      SUBS     r6,r6,r0
        0x00002faa:    4632        2F      MOV      r2,r6
        0x00002fac:    4620         F      MOV      r0,r4
        0x00002fae:    9904        ..      LDR      r1,[sp,#0x10]
        0x00002fb0:    f000ff9b    ....    BL       padbuffer ; 0x3eea
        0x00002fb4:    4606        .F      MOV      r6,r0
        0x00002fb6:    b10c        ..      CBZ      r4,0x2fbc ; am_util_stdio_vsprintf + 348
        0x00002fb8:    4630        0F      MOV      r0,r6
        0x00002fba:    e000        ..      B        0x2fbe ; am_util_stdio_vsprintf + 350
        0x00002fbc:    2000        .       MOVS     r0,#0
        0x00002fbe:    4404        .D      ADD      r4,r4,r0
        0x00002fc0:    44b1        .D      ADD      r9,r9,r6
        0x00002fc2:    2600        .&      MOVS     r6,#0
        0x00002fc4:    e10f        ..      B        0x31e6 ; am_util_stdio_vsprintf + 902
        0x00002fc6:    2001        .       MOVS     r0,#1
        0x00002fc8:    9003        ..      STR      r0,[sp,#0xc]
        0x00002fca:    bf00        ..      NOP      
        0x00002fcc:    9802        ..      LDR      r0,[sp,#8]
        0x00002fce:    b170        p.      CBZ      r0,0x2fee ; am_util_stdio_vsprintf + 398
        0x00002fd0:    980e        ..      LDR      r0,[sp,#0x38]
        0x00002fd2:    1dc0        ..      ADDS     r0,r0,#7
        0x00002fd4:    f0200007     ...    BIC      r0,r0,#7
        0x00002fd8:    4601        .F      MOV      r1,r0
        0x00002fda:    900e        ..      STR      r0,[sp,#0x38]
        0x00002fdc:    6800        .h      LDR      r0,[r0,#0]
        0x00002fde:    6849        Ih      LDR      r1,[r1,#4]
        0x00002fe0:    9a0e        ..      LDR      r2,[sp,#0x38]
        0x00002fe2:    3208        .2      ADDS     r2,r2,#8
        0x00002fe4:    920e        ..      STR      r2,[sp,#0x38]
        0x00002fe6:    e008        ..      B        0x2ffa ; am_util_stdio_vsprintf + 410
        0x00002fe8:    e0c3        ..      B        0x3172 ; am_util_stdio_vsprintf + 786
        0x00002fea:    e0c3        ..      B        0x3174 ; am_util_stdio_vsprintf + 788
        0x00002fec:    e0f4        ..      B        0x31d8 ; am_util_stdio_vsprintf + 888
        0x00002fee:    980e        ..      LDR      r0,[sp,#0x38]
        0x00002ff0:    6800        .h      LDR      r0,[r0,#0]
        0x00002ff2:    990e        ..      LDR      r1,[sp,#0x38]
        0x00002ff4:    1d09        ..      ADDS     r1,r1,#4
        0x00002ff6:    910e        ..      STR      r1,[sp,#0x38]
        0x00002ff8:    2100        .!      MOVS     r1,#0
        0x00002ffa:    4607        .F      MOV      r7,r0
        0x00002ffc:    4688        .F      MOV      r8,r1
        0x00002ffe:    b19e        ..      CBZ      r6,0x3028 ; am_util_stdio_vsprintf + 456
        0x00003000:    4638        8F      MOV      r0,r7
        0x00003002:    4641        AF      MOV      r1,r8
        0x00003004:    f000ff28    ..(.    BL       ndigits_in_hex ; 0x3e58
        0x00003008:    1a36        6.      SUBS     r6,r6,r0
        0x0000300a:    4632        2F      MOV      r2,r6
        0x0000300c:    4620         F      MOV      r0,r4
        0x0000300e:    9904        ..      LDR      r1,[sp,#0x10]
        0x00003010:    f000ff6b    ..k.    BL       padbuffer ; 0x3eea
        0x00003014:    4606        .F      MOV      r6,r0
        0x00003016:    b11c        ..      CBZ      r4,0x3020 ; am_util_stdio_vsprintf + 448
        0x00003018:    4630        0F      MOV      r0,r6
        0x0000301a:    e002        ..      B        0x3022 ; am_util_stdio_vsprintf + 450
        0x0000301c:    e043        C.      B        0x30a6 ; am_util_stdio_vsprintf + 582
        0x0000301e:    e00e        ..      B        0x303e ; am_util_stdio_vsprintf + 478
        0x00003020:    2000        .       MOVS     r0,#0
        0x00003022:    4404        .D      ADD      r4,r4,r0
        0x00003024:    44b1        .D      ADD      r9,r9,r6
        0x00003026:    2600        .&      MOVS     r6,#0
        0x00003028:    4622        "F      MOV      r2,r4
        0x0000302a:    4638        8F      MOV      r0,r7
        0x0000302c:    4641        AF      MOV      r1,r8
        0x0000302e:    9b03        ..      LDR      r3,[sp,#0xc]
        0x00003030:    f000ffb4    ....    BL       uint64_to_hexstr ; 0x3f9c
        0x00003034:    4682        .F      MOV      r10,r0
        0x00003036:    b104        ..      CBZ      r4,0x303a ; am_util_stdio_vsprintf + 474
        0x00003038:    4454        TD      ADD      r4,r4,r10
        0x0000303a:    44d1        .D      ADD      r9,r9,r10
        0x0000303c:    e0d3        ..      B        0x31e6 ; am_util_stdio_vsprintf + 902
        0x0000303e:    9802        ..      LDR      r0,[sp,#8]
        0x00003040:    b158        X.      CBZ      r0,0x305a ; am_util_stdio_vsprintf + 506
        0x00003042:    980e        ..      LDR      r0,[sp,#0x38]
        0x00003044:    1dc0        ..      ADDS     r0,r0,#7
        0x00003046:    f0200007     ...    BIC      r0,r0,#7
        0x0000304a:    4601        .F      MOV      r1,r0
        0x0000304c:    900e        ..      STR      r0,[sp,#0x38]
        0x0000304e:    6800        .h      LDR      r0,[r0,#0]
        0x00003050:    6849        Ih      LDR      r1,[r1,#4]
        0x00003052:    9a0e        ..      LDR      r2,[sp,#0x38]
        0x00003054:    3208        .2      ADDS     r2,r2,#8
        0x00003056:    920e        ..      STR      r2,[sp,#0x38]
        0x00003058:    e005        ..      B        0x3066 ; am_util_stdio_vsprintf + 518
        0x0000305a:    980e        ..      LDR      r0,[sp,#0x38]
        0x0000305c:    6800        .h      LDR      r0,[r0,#0]
        0x0000305e:    990e        ..      LDR      r1,[sp,#0x38]
        0x00003060:    1d09        ..      ADDS     r1,r1,#4
        0x00003062:    910e        ..      STR      r1,[sp,#0x38]
        0x00003064:    2100        .!      MOVS     r1,#0
        0x00003066:    4607        .F      MOV      r7,r0
        0x00003068:    4688        .F      MOV      r8,r1
        0x0000306a:    b18e        ..      CBZ      r6,0x3090 ; am_util_stdio_vsprintf + 560
        0x0000306c:    4638        8F      MOV      r0,r7
        0x0000306e:    4641        AF      MOV      r1,r8
        0x00003070:    f000ff1e    ....    BL       ndigits_in_u64 ; 0x3eb0
        0x00003074:    1a36        6.      SUBS     r6,r6,r0
        0x00003076:    4632        2F      MOV      r2,r6
        0x00003078:    4620         F      MOV      r0,r4
        0x0000307a:    9904        ..      LDR      r1,[sp,#0x10]
        0x0000307c:    f000ff35    ..5.    BL       padbuffer ; 0x3eea
        0x00003080:    4606        .F      MOV      r6,r0
        0x00003082:    b10c        ..      CBZ      r4,0x3088 ; am_util_stdio_vsprintf + 552
        0x00003084:    4630        0F      MOV      r0,r6
        0x00003086:    e000        ..      B        0x308a ; am_util_stdio_vsprintf + 554
        0x00003088:    2000        .       MOVS     r0,#0
        0x0000308a:    4404        .D      ADD      r4,r4,r0
        0x0000308c:    44b1        .D      ADD      r9,r9,r6
        0x0000308e:    2600        .&      MOVS     r6,#0
        0x00003090:    4622        "F      MOV      r2,r4
        0x00003092:    4638        8F      MOV      r0,r7
        0x00003094:    4641        AF      MOV      r1,r8
        0x00003096:    f000ffc6    ....    BL       uint64_to_str ; 0x4026
        0x0000309a:    4682        .F      MOV      r10,r0
        0x0000309c:    b104        ..      CBZ      r4,0x30a0 ; am_util_stdio_vsprintf + 576
        0x0000309e:    4454        TD      ADD      r4,r4,r10
        0x000030a0:    44d1        .D      ADD      r9,r9,r10
        0x000030a2:    e0a0        ..      B        0x31e6 ; am_util_stdio_vsprintf + 902
        0x000030a4:    bf00        ..      NOP      
        0x000030a6:    9802        ..      LDR      r0,[sp,#8]
        0x000030a8:    b158        X.      CBZ      r0,0x30c2 ; am_util_stdio_vsprintf + 610
        0x000030aa:    980e        ..      LDR      r0,[sp,#0x38]
        0x000030ac:    1dc0        ..      ADDS     r0,r0,#7
        0x000030ae:    f0200007     ...    BIC      r0,r0,#7
        0x000030b2:    4601        .F      MOV      r1,r0
        0x000030b4:    900e        ..      STR      r0,[sp,#0x38]
        0x000030b6:    6800        .h      LDR      r0,[r0,#0]
        0x000030b8:    6849        Ih      LDR      r1,[r1,#4]
        0x000030ba:    9a0e        ..      LDR      r2,[sp,#0x38]
        0x000030bc:    3208        .2      ADDS     r2,r2,#8
        0x000030be:    920e        ..      STR      r2,[sp,#0x38]
        0x000030c0:    e005        ..      B        0x30ce ; am_util_stdio_vsprintf + 622
        0x000030c2:    980e        ..      LDR      r0,[sp,#0x38]
        0x000030c4:    6800        .h      LDR      r0,[r0,#0]
        0x000030c6:    990e        ..      LDR      r1,[sp,#0x38]
        0x000030c8:    1d09        ..      ADDS     r1,r1,#4
        0x000030ca:    910e        ..      STR      r1,[sp,#0x38]
        0x000030cc:    17c1        ..      ASRS     r1,r0,#31
        0x000030ce:    e9cd0108    ....    STRD     r0,r1,[sp,#0x20]
        0x000030d2:    2300        .#      MOVS     r3,#0
        0x000030d4:    e9dd0108    ....    LDRD     r0,r1,[sp,#0x20]
        0x000030d8:    1ac0        ..      SUBS     r0,r0,r3
        0x000030da:    4199        .A      SBCS     r1,r1,r3
        0x000030dc:    da08        ..      BGE      0x30f0 ; am_util_stdio_vsprintf + 656
        0x000030de:    2200        ."      MOVS     r2,#0
        0x000030e0:    e9dd1008    ....    LDRD     r1,r0,[sp,#0x20]
        0x000030e4:    424f        OB      RSBS     r7,r1,#0
        0x000030e6:    eb620800    b...    SBC      r8,r2,r0
        0x000030ea:    2001        .       MOVS     r0,#1
        0x000030ec:    9001        ..      STR      r0,[sp,#4]
        0x000030ee:    e003        ..      B        0x30f8 ; am_util_stdio_vsprintf + 664
        0x000030f0:    e9dd7808    ...x    LDRD     r7,r8,[sp,#0x20]
        0x000030f4:    2000        .       MOVS     r0,#0
        0x000030f6:    9001        ..      STR      r0,[sp,#4]
        0x000030f8:    b34e        N.      CBZ      r6,0x314e ; am_util_stdio_vsprintf + 750
        0x000030fa:    4638        8F      MOV      r0,r7
        0x000030fc:    4641        AF      MOV      r1,r8
        0x000030fe:    f000fec5    ....    BL       ndigits_in_i64 ; 0x3e8c
        0x00003102:    1a36        6.      SUBS     r6,r6,r0
        0x00003104:    9801        ..      LDR      r0,[sp,#4]
        0x00003106:    b148        H.      CBZ      r0,0x311c ; am_util_stdio_vsprintf + 700
        0x00003108:    1e76        v.      SUBS     r6,r6,#1
        0x0000310a:    9804        ..      LDR      r0,[sp,#0x10]
        0x0000310c:    2830        0(      CMP      r0,#0x30
        0x0000310e:    d105        ..      BNE      0x311c ; am_util_stdio_vsprintf + 700
        0x00003110:    b114        ..      CBZ      r4,0x3118 ; am_util_stdio_vsprintf + 696
        0x00003112:    202d        -       MOVS     r0,#0x2d
        0x00003114:    f8040b01    ....    STRB     r0,[r4],#1
        0x00003118:    f1090901    ....    ADD      r9,r9,#1
        0x0000311c:    4632        2F      MOV      r2,r6
        0x0000311e:    4620         F      MOV      r0,r4
        0x00003120:    9904        ..      LDR      r1,[sp,#0x10]
        0x00003122:    f000fee2    ....    BL       padbuffer ; 0x3eea
        0x00003126:    4606        .F      MOV      r6,r0
        0x00003128:    b10c        ..      CBZ      r4,0x312e ; am_util_stdio_vsprintf + 718
        0x0000312a:    4630        0F      MOV      r0,r6
        0x0000312c:    e000        ..      B        0x3130 ; am_util_stdio_vsprintf + 720
        0x0000312e:    2000        .       MOVS     r0,#0
        0x00003130:    4404        .D      ADD      r4,r4,r0
        0x00003132:    44b1        .D      ADD      r9,r9,r6
        0x00003134:    2600        .&      MOVS     r6,#0
        0x00003136:    9801        ..      LDR      r0,[sp,#4]
        0x00003138:    b188        ..      CBZ      r0,0x315e ; am_util_stdio_vsprintf + 766
        0x0000313a:    9804        ..      LDR      r0,[sp,#0x10]
        0x0000313c:    2820         (      CMP      r0,#0x20
        0x0000313e:    d10e        ..      BNE      0x315e ; am_util_stdio_vsprintf + 766
        0x00003140:    b114        ..      CBZ      r4,0x3148 ; am_util_stdio_vsprintf + 744
        0x00003142:    202d        -       MOVS     r0,#0x2d
        0x00003144:    f8040b01    ....    STRB     r0,[r4],#1
        0x00003148:    f1090901    ....    ADD      r9,r9,#1
        0x0000314c:    e007        ..      B        0x315e ; am_util_stdio_vsprintf + 766
        0x0000314e:    9801        ..      LDR      r0,[sp,#4]
        0x00003150:    b128        (.      CBZ      r0,0x315e ; am_util_stdio_vsprintf + 766
        0x00003152:    b114        ..      CBZ      r4,0x315a ; am_util_stdio_vsprintf + 762
        0x00003154:    202d        -       MOVS     r0,#0x2d
        0x00003156:    f8040b01    ....    STRB     r0,[r4],#1
        0x0000315a:    f1090901    ....    ADD      r9,r9,#1
        0x0000315e:    4622        "F      MOV      r2,r4
        0x00003160:    4638        8F      MOV      r0,r7
        0x00003162:    4641        AF      MOV      r1,r8
        0x00003164:    f000ff5f    .._.    BL       uint64_to_str ; 0x4026
        0x00003168:    4682        .F      MOV      r10,r0
        0x0000316a:    b104        ..      CBZ      r4,0x316e ; am_util_stdio_vsprintf + 782
        0x0000316c:    4454        TD      ADD      r4,r4,r10
        0x0000316e:    44d1        .D      ADD      r9,r9,r10
        0x00003170:    e039        9.      B        0x31e6 ; am_util_stdio_vsprintf + 902
        0x00003172:    bf00        ..      NOP      
        0x00003174:    b37c        |.      CBZ      r4,0x31d6 ; am_util_stdio_vsprintf + 886
        0x00003176:    980e        ..      LDR      r0,[sp,#0x38]
        0x00003178:    1dc0        ..      ADDS     r0,r0,#7
        0x0000317a:    f0200007     ...    BIC      r0,r0,#7
        0x0000317e:    900e        ..      STR      r0,[sp,#0x38]
        0x00003180:    ecb01b02    ....    VLDM     r0!,{d1}
        0x00003184:    eeb00a41    ..A.    VMOV.F32 s0,s2
        0x00003188:    eef00a61    ..a.    VMOV.F32 s1,s3
        0x0000318c:    900e        ..      STR      r0,[sp,#0x38]
        0x0000318e:    ec510b10    Q...    VMOV     r0,r1,d0
        0x00003192:    f000ffcb    ....    BL       __aeabi_d2f ; 0x412c
        0x00003196:    ee080a10    ....    VMOV     s16,r0
        0x0000319a:    2014        .       MOVS     r0,#0x14
        0x0000319c:    6020         `      STR      r0,[r4,#0]
        0x0000319e:    4620         F      MOV      r0,r4
        0x000031a0:    eeb00a48    ..H.    VMOV.F32 s0,s16
        0x000031a4:    9906        ..      LDR      r1,[sp,#0x18]
        0x000031a6:    f000f8c9    ....    BL       ftoa ; 0x333c
        0x000031aa:    4682        .F      MOV      r10,r0
        0x000031ac:    f1ba0f00    ....    CMP      r10,#0
        0x000031b0:    da0e        ..      BGE      0x31d0 ; am_util_stdio_vsprintf + 880
        0x000031b2:    f10a0101    ....    ADD      r1,r10,#1
        0x000031b6:    b909        ..      CBNZ     r1,0x31bc ; am_util_stdio_vsprintf + 860
        0x000031b8:    4813        .H      LDR      r0,[pc,#76] ; [0x3208] = 0x302e30
        0x000031ba:    e005        ..      B        0x31c8 ; am_util_stdio_vsprintf + 872
        0x000031bc:    f10a0102    ....    ADD      r1,r10,#2
        0x000031c0:    b909        ..      CBNZ     r1,0x31c6 ; am_util_stdio_vsprintf + 870
        0x000031c2:    4812        .H      LDR      r0,[pc,#72] ; [0x320c] = 0x232e23
        0x000031c4:    e000        ..      B        0x31c8 ; am_util_stdio_vsprintf + 872
        0x000031c6:    4812        .H      LDR      r0,[pc,#72] ; [0x3210] = 0x3f2e3f
        0x000031c8:    6020         `      STR      r0,[r4,#0]
        0x000031ca:    f04f0a03    O...    MOV      r10,#3
        0x000031ce:    bf00        ..      NOP      
        0x000031d0:    44d1        .D      ADD      r9,r9,r10
        0x000031d2:    4454        TD      ADD      r4,r4,r10
        0x000031d4:    bf00        ..      NOP      
        0x000031d6:    e006        ..      B        0x31e6 ; am_util_stdio_vsprintf + 902
        0x000031d8:    b114        ..      CBZ      r4,0x31e0 ; am_util_stdio_vsprintf + 896
        0x000031da:    7828        (x      LDRB     r0,[r5,#0]
        0x000031dc:    f8040b01    ....    STRB     r0,[r4],#1
        0x000031e0:    f1090901    ....    ADD      r9,r9,#1
        0x000031e4:    bf00        ..      NOP      
        0x000031e6:    bf00        ..      NOP      
        0x000031e8:    1c6d        m.      ADDS     r5,r5,#1
        0x000031ea:    bf00        ..      NOP      
        0x000031ec:    7828        (x      LDRB     r0,[r5,#0]
        0x000031ee:    2800        .(      CMP      r0,#0
        0x000031f0:    f47fae42    ..B.    BNE      0x2e78 ; am_util_stdio_vsprintf + 24
        0x000031f4:    b104        ..      CBZ      r4,0x31f8 ; am_util_stdio_vsprintf + 920
        0x000031f6:    7020         p      STRB     r0,[r4,#0]
        0x000031f8:    4648        HF      MOV      r0,r9
        0x000031fa:    b00a        ..      ADD      sp,sp,#0x28
        0x000031fc:    ecbd8b02    ....    VPOP     {d8}
        0x00003200:    e8bd8ffe    ....    POP      {r1-r11,pc}
    $d
        0x00003204:    10000028    (...    DCD    268435496
        0x00003208:    00302e30    0.0.    DCD    3157552
        0x0000320c:    00232e23    #.#.    DCD    2305571
        0x00003210:    003f2e3f    ?.?.    DCD    4140607
    $t
    i.clear_rx_buf
    clear_rx_buf
        0x00003214:    2000        .       MOVS     r0,#0
        0x00003216:    e003        ..      B        0x3220 ; clear_rx_buf + 12
        0x00003218:    21ee        .!      MOVS     r1,#0xee
        0x0000321a:    4a03        .J      LDR      r2,[pc,#12] ; [0x3228] = 0x100000e0
        0x0000321c:    5411        .T      STRB     r1,[r2,r0]
        0x0000321e:    1c40        @.      ADDS     r0,r0,#1
        0x00003220:    f5b06f80    ...o    CMP      r0,#0x400
        0x00003224:    d3f8        ..      BCC      0x3218 ; clear_rx_buf + 4
        0x00003226:    4770        pG      BX       lr
    $d
        0x00003228:    100000e0    ....    DCD    268435680
    $t
    i.decstr_to_int
    decstr_to_int
        0x0000322c:    b530        0.      PUSH     {r4,r5,lr}
        0x0000322e:    4602        .F      MOV      r2,r0
        0x00003230:    2500        .%      MOVS     r5,#0
        0x00003232:    2300        .#      MOVS     r3,#0
        0x00003234:    2400        .$      MOVS     r4,#0
        0x00003236:    7810        .x      LDRB     r0,[r2,#0]
        0x00003238:    282d        -(      CMP      r0,#0x2d
        0x0000323a:    d102        ..      BNE      0x3242 ; decstr_to_int + 22
        0x0000323c:    2501        .%      MOVS     r5,#1
        0x0000323e:    1c52        R.      ADDS     r2,r2,#1
        0x00003240:    1c64        d.      ADDS     r4,r4,#1
        0x00003242:    e007        ..      B        0x3254 ; decstr_to_int + 40
        0x00003244:    1c64        d.      ADDS     r4,r4,#1
        0x00003246:    eb030083    ....    ADD      r0,r3,r3,LSL #2
        0x0000324a:    0043        C.      LSLS     r3,r0,#1
        0x0000324c:    7810        .x      LDRB     r0,[r2,#0]
        0x0000324e:    3830        08      SUBS     r0,r0,#0x30
        0x00003250:    4403        .D      ADD      r3,r3,r0
        0x00003252:    1c52        R.      ADDS     r2,r2,#1
        0x00003254:    7810        .x      LDRB     r0,[r2,#0]
        0x00003256:    2830        0(      CMP      r0,#0x30
        0x00003258:    db02        ..      BLT      0x3260 ; decstr_to_int + 52
        0x0000325a:    7810        .x      LDRB     r0,[r2,#0]
        0x0000325c:    2839        9(      CMP      r0,#0x39
        0x0000325e:    ddf1        ..      BLE      0x3244 ; decstr_to_int + 24
        0x00003260:    b101        ..      CBZ      r1,0x3264 ; decstr_to_int + 56
        0x00003262:    600c        .`      STR      r4,[r1,#0]
        0x00003264:    b10d        ..      CBZ      r5,0x326a ; decstr_to_int + 62
        0x00003266:    4258        XB      RSBS     r0,r3,#0
        0x00003268:    bd30        0.      POP      {r4,r5,pc}
        0x0000326a:    4618        .F      MOV      r0,r3
        0x0000326c:    e7fc        ..      B        0x3268 ; decstr_to_int + 60
    i.divu64_10
    divu64_10
        0x0000326e:    e92d4ff0    -..O    PUSH     {r4-r11,lr}
        0x00003272:    4604        .F      MOV      r4,r0
        0x00003274:    460d        .F      MOV      r5,r1
        0x00003276:    2000        .       MOVS     r0,#0
        0x00003278:    ea850100    ....    EOR      r1,r5,r0
        0x0000327c:    4040        @@      EORS     r0,r0,r0
        0x0000327e:    4301        .C      ORRS     r1,r1,r0
        0x00003280:    d044        D.      BEQ      0x330c ; divu64_10 + 158
        0x00003282:    ea5f0a55    _.U.    LSRS     r10,r5,#1
        0x00003286:    ea4f0134    O.4.    RRX      r1,r4
        0x0000328a:    ea4f0b94    O...    LSR      r11,r4,#2
        0x0000328e:    ea4b7085    K..p    ORR      r0,r11,r5,LSL #30
        0x00003292:    180a        ..      ADDS     r2,r1,r0
        0x00003294:    eb4a0395    J...    ADC      r3,r10,r5,LSR #2
        0x00003298:    ea4f1012    O...    LSR      r0,r2,#4
        0x0000329c:    ea407a03    @..z    ORR      r10,r0,r3,LSL #28
        0x000032a0:    eb1a0202    ....    ADDS     r2,r10,r2
        0x000032a4:    eb431313    C...    ADC      r3,r3,r3,LSR #4
        0x000032a8:    ea4f2012    O..     LSR      r0,r2,#8
        0x000032ac:    ea406a03    @..j    ORR      r10,r0,r3,LSL #24
        0x000032b0:    eb1a0202    ....    ADDS     r2,r10,r2
        0x000032b4:    eb432313    C..#    ADC      r3,r3,r3,LSR #8
        0x000032b8:    ea4f4012    O..@    LSR      r0,r2,#16
        0x000032bc:    ea404a03    @..J    ORR      r10,r0,r3,LSL #16
        0x000032c0:    eb1a0202    ....    ADDS     r2,r10,r2
        0x000032c4:    eb434313    C..C    ADC      r3,r3,r3,LSR #16
        0x000032c8:    189a        ..      ADDS     r2,r3,r2
        0x000032ca:    f1430300    C...    ADC      r3,r3,#0
        0x000032ce:    08d0        ..      LSRS     r0,r2,#3
        0x000032d0:    ea407243    @.Cr    ORR      r2,r0,r3,LSL #29
        0x000032d4:    08db        ..      LSRS     r3,r3,#3
        0x000032d6:    210a        .!      MOVS     r1,#0xa
        0x000032d8:    f04f0a00    O...    MOV      r10,#0
        0x000032dc:    fba20b01    ....    UMULL    r0,r11,r2,r1
        0x000032e0:    fb03b101    ....    MLA      r1,r3,r1,r11
        0x000032e4:    fb02110a    ....    MLA      r1,r2,r10,r1
        0x000032e8:    1a26        &.      SUBS     r6,r4,r0
        0x000032ea:    eb650701    e...    SBC      r7,r5,r1
        0x000032ee:    2106        .!      MOVS     r1,#6
        0x000032f0:    eb160a01    ....    ADDS     r10,r6,r1
        0x000032f4:    f1470100    G...    ADC      r1,r7,#0
        0x000032f8:    ea4f101a    O...    LSR      r0,r10,#4
        0x000032fc:    ea407a01    @..z    ORR      r10,r0,r1,LSL #28
        0x00003300:    eb1a0002    ....    ADDS     r0,r10,r2
        0x00003304:    eb431111    C...    ADC      r1,r3,r1,LSR #4
        0x00003308:    e8bd8ff0    ....    POP      {r4-r11,pc}
        0x0000330c:    46a0        .F      MOV      r8,r4
        0x0000330e:    ea4f0058    O.X.    LSR      r0,r8,#1
        0x00003312:    eb000c98    ....    ADD      r12,r0,r8,LSR #2
        0x00003316:    eb0c1c1c    ....    ADD      r12,r12,r12,LSR #4
        0x0000331a:    eb0c2c1c    ...,    ADD      r12,r12,r12,LSR #8
        0x0000331e:    eb0c4c1c    ...L    ADD      r12,r12,r12,LSR #16
        0x00003322:    ea4f0cdc    O...    LSR      r12,r12,#3
        0x00003326:    eb0c008c    ....    ADD      r0,r12,r12,LSL #2
        0x0000332a:    eba80940    ..@.    SUB      r9,r8,r0,LSL #1
        0x0000332e:    f1090006    ....    ADD      r0,r9,#6
        0x00003332:    eb0c1010    ....    ADD      r0,r12,r0,LSR #4
        0x00003336:    2100        .!      MOVS     r1,#0
        0x00003338:    e7e6        ..      B        0x3308 ; divu64_10 + 154
        0x0000333a:    0000        ..      MOVS     r0,r0
    i.ftoa
    ftoa
        0x0000333c:    e92d4ff0    -..O    PUSH     {r4-r11,lr}
        0x00003340:    ed2d8b02    -...    VPUSH    {d8}
        0x00003344:    b081        ..      SUB      sp,sp,#4
        0x00003346:    eeb08a40    ..@.    VMOV.F32 s16,s0
        0x0000334a:    4604        .F      MOV      r4,r0
        0x0000334c:    468a        .F      MOV      r10,r1
        0x0000334e:    f8d4b000    ....    LDR      r11,[r4,#0]
        0x00003352:    f1bb0f04    ....    CMP      r11,#4
        0x00003356:    da06        ..      BGE      0x3366 ; ftoa + 42
        0x00003358:    f06f0002    o...    MVN      r0,#2
        0x0000335c:    b001        ..      ADD      sp,sp,#4
        0x0000335e:    ecbd8b02    ....    VPOP     {d8}
        0x00003362:    e8bd8ff0    ....    POP      {r4-r11,pc}
        0x00003366:    eeb58ac0    ....    VCMPE.F32 s16,#0.0
        0x0000336a:    eef1fa10    ....    VMRS     APSR_nzcv,FPSCR
        0x0000336e:    d103        ..      BNE      0x3378 ; ftoa + 60
        0x00003370:    4846        FH      LDR      r0,[pc,#280] ; [0x348c] = 0x302e30
        0x00003372:    6020         `      STR      r0,[r4,#0]
        0x00003374:    2003        .       MOVS     r0,#3
        0x00003376:    e7f1        ..      B        0x335c ; ftoa + 32
        0x00003378:    46a1        .F      MOV      r9,r4
        0x0000337a:    ed8d8a00    ....    VSTR     s16,[sp,#0]
        0x0000337e:    9800        ..      LDR      r0,[sp,#0]
        0x00003380:    f3c050c7    ...P    UBFX     r0,r0,#23,#8
        0x00003384:    f1a0057f    ....    SUB      r5,r0,#0x7f
        0x00003388:    9800        ..      LDR      r0,[sp,#0]
        0x0000338a:    f020407f     ..@    BIC      r0,r0,#0xff000000
        0x0000338e:    f4400700    @...    ORR      r7,r0,#0x800000
        0x00003392:    f04f0800    O...    MOV      r8,#0
        0x00003396:    2600        .&      MOVS     r6,#0
        0x00003398:    2d1f        .-      CMP      r5,#0x1f
        0x0000339a:    db01        ..      BLT      0x33a0 ; ftoa + 100
        0x0000339c:    1eb0        ..      SUBS     r0,r6,#2
        0x0000339e:    e7dd        ..      B        0x335c ; ftoa + 32
        0x000033a0:    f1150f17    ....    CMN      r5,#0x17
        0x000033a4:    da02        ..      BGE      0x33ac ; ftoa + 112
        0x000033a6:    f04f30ff    O..0    MOV      r0,#0xffffffff
        0x000033aa:    e7d7        ..      B        0x335c ; ftoa + 32
        0x000033ac:    2d17        .-      CMP      r5,#0x17
        0x000033ae:    db04        ..      BLT      0x33ba ; ftoa + 126
        0x000033b0:    f1a50017    ....    SUB      r0,r5,#0x17
        0x000033b4:    fa07f600    ....    LSL      r6,r7,r0
        0x000033b8:    e011        ..      B        0x33de ; ftoa + 162
        0x000033ba:    2d00        .-      CMP      r5,#0
        0x000033bc:    db09        ..      BLT      0x33d2 ; ftoa + 150
        0x000033be:    f1c50017    ....    RSB      r0,r5,#0x17
        0x000033c2:    fa47f600    G...    ASR      r6,r7,r0
        0x000033c6:    1c68        h.      ADDS     r0,r5,#1
        0x000033c8:    fa07f000    ....    LSL      r0,r7,r0
        0x000033cc:    f020487f     ..H    BIC      r8,r0,#0xff000000
        0x000033d0:    e005        ..      B        0x33de ; ftoa + 162
        0x000033d2:    f027407f    '..@    BIC      r0,r7,#0xff000000
        0x000033d6:    1c69        i.      ADDS     r1,r5,#1
        0x000033d8:    4249        IB      RSBS     r1,r1,#0
        0x000033da:    fa40f801    @...    ASR      r8,r0,r1
        0x000033de:    9800        ..      LDR      r0,[sp,#0]
        0x000033e0:    2800        .(      CMP      r0,#0
        0x000033e2:    da02        ..      BGE      0x33ea ; ftoa + 174
        0x000033e4:    202d        -       MOVS     r0,#0x2d
        0x000033e6:    f8040b01    ....    STRB     r0,[r4],#1
        0x000033ea:    b91e        ..      CBNZ     r6,0x33f4 ; ftoa + 184
        0x000033ec:    2030        0       MOVS     r0,#0x30
        0x000033ee:    f8040b01    ....    STRB     r0,[r4],#1
        0x000033f2:    e014        ..      B        0x341e ; ftoa + 226
        0x000033f4:    2e00        ..      CMP      r6,#0
        0x000033f6:    dd05        ..      BLE      0x3404 ; ftoa + 200
        0x000033f8:    4622        "F      MOV      r2,r4
        0x000033fa:    4630        0F      MOV      r0,r6
        0x000033fc:    17f1        ..      ASRS     r1,r6,#31
        0x000033fe:    f000fe12    ....    BL       uint64_to_str ; 0x4026
        0x00003402:    e007        ..      B        0x3414 ; ftoa + 216
        0x00003404:    202d        -       MOVS     r0,#0x2d
        0x00003406:    f8040b01    ....    STRB     r0,[r4],#1
        0x0000340a:    4622        "F      MOV      r2,r4
        0x0000340c:    4270        pB      RSBS     r0,r6,#0
        0x0000340e:    17c1        ..      ASRS     r1,r0,#31
        0x00003410:    f000fe09    ....    BL       uint64_to_str ; 0x4026
        0x00003414:    e000        ..      B        0x3418 ; ftoa + 220
        0x00003416:    1c64        d.      ADDS     r4,r4,#1
        0x00003418:    7820         x      LDRB     r0,[r4,#0]
        0x0000341a:    2800        .(      CMP      r0,#0
        0x0000341c:    d1fb        ..      BNE      0x3416 ; ftoa + 218
        0x0000341e:    202e        .       MOVS     r0,#0x2e
        0x00003420:    f8040b01    ....    STRB     r0,[r4],#1
        0x00003424:    f1b80f00    ....    CMP      r8,#0
        0x00003428:    d103        ..      BNE      0x3432 ; ftoa + 246
        0x0000342a:    2030        0       MOVS     r0,#0x30
        0x0000342c:    f8040b01    ....    STRB     r0,[r4],#1
        0x00003430:    e026        &.      B        0x3480 ; ftoa + 324
        0x00003432:    eba40209    ....    SUB      r2,r4,r9
        0x00003436:    ebab0202    ....    SUB      r2,r11,r2
        0x0000343a:    1e51        Q.      SUBS     r1,r2,#1
        0x0000343c:    4551        QE      CMP      r1,r10
        0x0000343e:    dd01        ..      BLE      0x3444 ; ftoa + 264
        0x00003440:    4652        RF      MOV      r2,r10
        0x00003442:    e000        ..      B        0x3446 ; ftoa + 266
        0x00003444:    460a        .F      MOV      r2,r1
        0x00003446:    4611        .F      MOV      r1,r2
        0x00003448:    2000        .       MOVS     r0,#0
        0x0000344a:    e00b        ..      B        0x3464 ; ftoa + 296
        0x0000344c:    eb080288    ....    ADD      r2,r8,r8,LSL #2
        0x00003450:    ea4f0842    O.B.    LSL      r8,r2,#1
        0x00003454:    2230        0"      MOVS     r2,#0x30
        0x00003456:    eb026228    ..(b    ADD      r2,r2,r8,ASR #24
        0x0000345a:    f8042b01    ...+    STRB     r2,[r4],#1
        0x0000345e:    f028487f    (..H    BIC      r8,r8,#0xff000000
        0x00003462:    1c40        @.      ADDS     r0,r0,#1
        0x00003464:    4288        .B      CMP      r0,r1
        0x00003466:    dbf1        ..      BLT      0x344c ; ftoa + 272
        0x00003468:    1e64        d.      SUBS     r4,r4,#1
        0x0000346a:    e000        ..      B        0x346e ; ftoa + 306
        0x0000346c:    1e64        d.      SUBS     r4,r4,#1
        0x0000346e:    7822        "x      LDRB     r2,[r4,#0]
        0x00003470:    2a30        0*      CMP      r2,#0x30
        0x00003472:    d103        ..      BNE      0x347c ; ftoa + 320
        0x00003474:    f8142c01    ...,    LDRB     r2,[r4,#-1]
        0x00003478:    2a2e        .*      CMP      r2,#0x2e
        0x0000347a:    d1f7        ..      BNE      0x346c ; ftoa + 304
        0x0000347c:    1c64        d.      ADDS     r4,r4,#1
        0x0000347e:    bf00        ..      NOP      
        0x00003480:    2000        .       MOVS     r0,#0
        0x00003482:    7020         p      STRB     r0,[r4,#0]
        0x00003484:    eba40009    ....    SUB      r0,r4,r9
        0x00003488:    e768        h.      B        0x335c ; ftoa + 32
    $d
        0x0000348a:    0000        ..      DCW    0
        0x0000348c:    00302e30    0.0.    DCD    3157552
    $t
    i.hostint_handler
    hostint_handler
        0x00003490:    2001        .       MOVS     r0,#1
        0x00003492:    4901        .I      LDR      r1,[pc,#4] ; [0x3498] = 0x10000004
        0x00003494:    7008        .p      STRB     r0,[r1,#0]
        0x00003496:    4770        pG      BX       lr
    $d
        0x00003498:    10000004    ....    DCD    268435460
    $t
    i.i2c_pins_enable
    i2c_pins_enable
        0x0000349c:    b508        ..      PUSH     {r3,lr}
        0x0000349e:    2806        .(      CMP      r0,#6
        0x000034a0:    d27e        ~.      BCS      0x35a0 ; i2c_pins_enable + 260
        0x000034a2:    e8dff000    ....    TBB      [pc,r0]
    $d
        0x000034a6:    5403        .T      DCW    21507
        0x000034a8:    fafbfda8    ....    DCD    4210818472
    $t
        0x000034ac:    2120         !      MOVS     r1,#0x20
        0x000034ae:    4af8        .J      LDR      r2,[pc,#992] ; [0x3890] = 0x40010090
        0x000034b0:    6011        .`      STR      r1,[r2,#0]
        0x000034b2:    2140        @!      MOVS     r1,#0x40
        0x000034b4:    4af6        .J      LDR      r2,[pc,#984] ; [0x3890] = 0x40010090
        0x000034b6:    3a90        .:      SUBS     r2,r2,#0x90
        0x000034b8:    f8c21090    ....    STR      r1,[r2,#0x90]
        0x000034bc:    f3ef8110    ....    MRS      r1,PRIMASK
        0x000034c0:    9100        ..      STR      r1,[sp,#0]
        0x000034c2:    b672        r.      CPSID    i
        0x000034c4:    2173        s!      MOVS     r1,#0x73
        0x000034c6:    6611        .f      STR      r1,[r2,#0x60]
        0x000034c8:    4611        .F      MOV      r1,r2
        0x000034ca:    6c09        .l      LDR      r1,[r1,#0x40]
        0x000034cc:    f42101e0    !...    BIC      r1,r1,#0x700000
        0x000034d0:    f4410180    A...    ORR      r1,r1,#0x400000
        0x000034d4:    6411        .d      STR      r1,[r2,#0x40]
        0x000034d6:    4611        .F      MOV      r1,r2
        0x000034d8:    6849        Ih      LDR      r1,[r1,#4]
        0x000034da:    f421417f    !..A    BIC      r1,r1,#0xff00
        0x000034de:    f4417140    A.@q    ORR      r1,r1,#0x300
        0x000034e2:    6051        Q`      STR      r1,[r2,#4]
        0x000034e4:    4611        .F      MOV      r1,r2
        0x000034e6:    f8d110e4    ....    LDR      r1,[r1,#0xe4]
        0x000034ea:    f421417f    !..A    BIC      r1,r1,#0xff00
        0x000034ee:    4ae8        .J      LDR      r2,[pc,#928] ; [0x3890] = 0x40010090
        0x000034f0:    3254        T2      ADDS     r2,r2,#0x54
        0x000034f2:    6011        .`      STR      r1,[r2,#0]
        0x000034f4:    2100        .!      MOVS     r1,#0
        0x000034f6:    4ae6        .J      LDR      r2,[pc,#920] ; [0x3890] = 0x40010090
        0x000034f8:    3a90        .:      SUBS     r2,r2,#0x90
        0x000034fa:    6611        .f      STR      r1,[r2,#0x60]
        0x000034fc:    9900        ..      LDR      r1,[sp,#0]
        0x000034fe:    f3818810    ....    MSR      PRIMASK,r1
        0x00003502:    f3ef8110    ....    MRS      r1,PRIMASK
        0x00003506:    9100        ..      STR      r1,[sp,#0]
        0x00003508:    b672        r.      CPSID    i
        0x0000350a:    2173        s!      MOVS     r1,#0x73
        0x0000350c:    4ae0        .J      LDR      r2,[pc,#896] ; [0x3890] = 0x40010090
        0x0000350e:    3a90        .:      SUBS     r2,r2,#0x90
        0x00003510:    6611        .f      STR      r1,[r2,#0x60]
        0x00003512:    4611        .F      MOV      r1,r2
        0x00003514:    6c09        .l      LDR      r1,[r1,#0x40]
        0x00003516:    f02161e0    !..a    BIC      r1,r1,#0x7000000
        0x0000351a:    f0416180    A..a    ORR      r1,r1,#0x4000000
        0x0000351e:    6411        .d      STR      r1,[r2,#0x40]
        0x00003520:    4611        .F      MOV      r1,r2
        0x00003522:    6849        Ih      LDR      r1,[r1,#4]
        0x00003524:    f421017f    !...    BIC      r1,r1,#0xff0000
        0x00003528:    f4413140    A.@1    ORR      r1,r1,#0x30000
        0x0000352c:    6051        Q`      STR      r1,[r2,#4]
        0x0000352e:    4611        .F      MOV      r1,r2
        0x00003530:    f8d110e4    ....    LDR      r1,[r1,#0xe4]
        0x00003534:    f421017f    !...    BIC      r1,r1,#0xff0000
        0x00003538:    4ad5        .J      LDR      r2,[pc,#852] ; [0x3890] = 0x40010090
        0x0000353a:    3254        T2      ADDS     r2,r2,#0x54
        0x0000353c:    6011        .`      STR      r1,[r2,#0]
        0x0000353e:    2100        .!      MOVS     r1,#0
        0x00003540:    4ad3        .J      LDR      r2,[pc,#844] ; [0x3890] = 0x40010090
        0x00003542:    3a90        .:      SUBS     r2,r2,#0x90
        0x00003544:    6611        .f      STR      r1,[r2,#0x60]
        0x00003546:    9900        ..      LDR      r1,[sp,#0]
        0x00003548:    f3818810    ....    MSR      PRIMASK,r1
        0x0000354c:    e1a4        ..      B        0x3898 ; i2c_pins_enable + 1020
        0x0000354e:    f44f7180    O..q    MOV      r1,#0x100
        0x00003552:    4acf        .J      LDR      r2,[pc,#828] ; [0x3890] = 0x40010090
        0x00003554:    6011        .`      STR      r1,[r2,#0]
        0x00003556:    0049        I.      LSLS     r1,r1,#1
        0x00003558:    4acd        .J      LDR      r2,[pc,#820] ; [0x3890] = 0x40010090
        0x0000355a:    3a90        .:      SUBS     r2,r2,#0x90
        0x0000355c:    f8c21090    ....    STR      r1,[r2,#0x90]
        0x00003560:    f3ef8110    ....    MRS      r1,PRIMASK
        0x00003564:    9100        ..      STR      r1,[sp,#0]
        0x00003566:    b672        r.      CPSID    i
        0x00003568:    2173        s!      MOVS     r1,#0x73
        0x0000356a:    6611        .f      STR      r1,[r2,#0x60]
        0x0000356c:    4611        .F      MOV      r1,r2
        0x0000356e:    6c49        Il      LDR      r1,[r1,#0x44]
        0x00003570:    f0210107    !...    BIC      r1,r1,#7
        0x00003574:    f0410104    A...    ORR      r1,r1,#4
        0x00003578:    6451        Qd      STR      r1,[r2,#0x44]
        0x0000357a:    4611        .F      MOV      r1,r2
        0x0000357c:    6889        .h      LDR      r1,[r1,#8]
        0x0000357e:    f02101ff    !...    BIC      r1,r1,#0xff
        0x00003582:    f0410103    A...    ORR      r1,r1,#3
        0x00003586:    6091        .`      STR      r1,[r2,#8]
        0x00003588:    4611        .F      MOV      r1,r2
        0x0000358a:    f8d110e8    ....    LDR      r1,[r1,#0xe8]
        0x0000358e:    f02101ff    !...    BIC      r1,r1,#0xff
        0x00003592:    4abf        .J      LDR      r2,[pc,#764] ; [0x3890] = 0x40010090
        0x00003594:    3258        X2      ADDS     r2,r2,#0x58
        0x00003596:    6011        .`      STR      r1,[r2,#0]
        0x00003598:    2100        .!      MOVS     r1,#0
        0x0000359a:    4abd        .J      LDR      r2,[pc,#756] ; [0x3890] = 0x40010090
        0x0000359c:    3a90        .:      SUBS     r2,r2,#0x90
        0x0000359e:    e000        ..      B        0x35a2 ; i2c_pins_enable + 262
        0x000035a0:    e178        x.      B        0x3894 ; i2c_pins_enable + 1016
        0x000035a2:    6611        .f      STR      r1,[r2,#0x60]
        0x000035a4:    9900        ..      LDR      r1,[sp,#0]
        0x000035a6:    f3818810    ....    MSR      PRIMASK,r1
        0x000035aa:    f3ef8110    ....    MRS      r1,PRIMASK
        0x000035ae:    9100        ..      STR      r1,[sp,#0]
        0x000035b0:    b672        r.      CPSID    i
        0x000035b2:    2173        s!      MOVS     r1,#0x73
        0x000035b4:    4ab6        .J      LDR      r2,[pc,#728] ; [0x3890] = 0x40010090
        0x000035b6:    3a90        .:      SUBS     r2,r2,#0x90
        0x000035b8:    6611        .f      STR      r1,[r2,#0x60]
        0x000035ba:    4611        .F      MOV      r1,r2
        0x000035bc:    6c49        Il      LDR      r1,[r1,#0x44]
        0x000035be:    f0210170    !.p.    BIC      r1,r1,#0x70
        0x000035c2:    f0410140    A.@.    ORR      r1,r1,#0x40
        0x000035c6:    6451        Qd      STR      r1,[r2,#0x44]
        0x000035c8:    4611        .F      MOV      r1,r2
        0x000035ca:    6889        .h      LDR      r1,[r1,#8]
        0x000035cc:    f421417f    !..A    BIC      r1,r1,#0xff00
        0x000035d0:    f4417140    A.@q    ORR      r1,r1,#0x300
        0x000035d4:    6091        .`      STR      r1,[r2,#8]
        0x000035d6:    4611        .F      MOV      r1,r2
        0x000035d8:    f8d110e8    ....    LDR      r1,[r1,#0xe8]
        0x000035dc:    f421417f    !..A    BIC      r1,r1,#0xff00
        0x000035e0:    4aab        .J      LDR      r2,[pc,#684] ; [0x3890] = 0x40010090
        0x000035e2:    3258        X2      ADDS     r2,r2,#0x58
        0x000035e4:    6011        .`      STR      r1,[r2,#0]
        0x000035e6:    2100        .!      MOVS     r1,#0
        0x000035e8:    4aa9        .J      LDR      r2,[pc,#676] ; [0x3890] = 0x40010090
        0x000035ea:    3a90        .:      SUBS     r2,r2,#0x90
        0x000035ec:    6611        .f      STR      r1,[r2,#0x60]
        0x000035ee:    9900        ..      LDR      r1,[sp,#0]
        0x000035f0:    f3818810    ....    MSR      PRIMASK,r1
        0x000035f4:    e150        P.      B        0x3898 ; i2c_pins_enable + 1020
        0x000035f6:    f04f6100    O..a    MOV      r1,#0x8000000
        0x000035fa:    4aa5        .J      LDR      r2,[pc,#660] ; [0x3890] = 0x40010090
        0x000035fc:    6011        .`      STR      r1,[r2,#0]
        0x000035fe:    1089        ..      ASRS     r1,r1,#2
        0x00003600:    4aa3        .J      LDR      r2,[pc,#652] ; [0x3890] = 0x40010090
        0x00003602:    3a90        .:      SUBS     r2,r2,#0x90
        0x00003604:    f8c21090    ....    STR      r1,[r2,#0x90]
        0x00003608:    f3ef8110    ....    MRS      r1,PRIMASK
        0x0000360c:    9100        ..      STR      r1,[sp,#0]
        0x0000360e:    b672        r.      CPSID    i
        0x00003610:    2173        s!      MOVS     r1,#0x73
        0x00003612:    6611        .f      STR      r1,[r2,#0x60]
        0x00003614:    4611        .F      MOV      r1,r2
        0x00003616:    6cc9        .l      LDR      r1,[r1,#0x4c]
        0x00003618:    f42141e0    !..A    BIC      r1,r1,#0x7000
        0x0000361c:    f4414180    A..A    ORR      r1,r1,#0x4000
        0x00003620:    64d1        .d      STR      r1,[r2,#0x4c]
        0x00003622:    4611        .F      MOV      r1,r2
        0x00003624:    6989        .i      LDR      r1,[r1,#0x18]
        0x00003626:    f021417f    !..A    BIC      r1,r1,#0xff000000
        0x0000362a:    f041510c    A..Q    ORR      r1,r1,#0x23000000
        0x0000362e:    6191        .a      STR      r1,[r2,#0x18]
        0x00003630:    4611        .F      MOV      r1,r2
        0x00003632:    f8d110f8    ....    LDR      r1,[r1,#0xf8]
        0x00003636:    f021417f    !..A    BIC      r1,r1,#0xff000000
        0x0000363a:    4a95        .J      LDR      r2,[pc,#596] ; [0x3890] = 0x40010090
        0x0000363c:    3268        h2      ADDS     r2,r2,#0x68
        0x0000363e:    6011        .`      STR      r1,[r2,#0]
        0x00003640:    2100        .!      MOVS     r1,#0
        0x00003642:    4a93        .J      LDR      r2,[pc,#588] ; [0x3890] = 0x40010090
        0x00003644:    3a90        .:      SUBS     r2,r2,#0x90
        0x00003646:    6611        .f      STR      r1,[r2,#0x60]
        0x00003648:    9900        ..      LDR      r1,[sp,#0]
        0x0000364a:    f3818810    ....    MSR      PRIMASK,r1
        0x0000364e:    f3ef8110    ....    MRS      r1,PRIMASK
        0x00003652:    9100        ..      STR      r1,[sp,#0]
        0x00003654:    b672        r.      CPSID    i
        0x00003656:    2173        s!      MOVS     r1,#0x73
        0x00003658:    4a8d        .J      LDR      r2,[pc,#564] ; [0x3890] = 0x40010090
        0x0000365a:    3a90        .:      SUBS     r2,r2,#0x90
        0x0000365c:    6611        .f      STR      r1,[r2,#0x60]
        0x0000365e:    4611        .F      MOV      r1,r2
        0x00003660:    6cc9        .l      LDR      r1,[r1,#0x4c]
        0x00003662:    f0210170    !.p.    BIC      r1,r1,#0x70
        0x00003666:    f0410140    A.@.    ORR      r1,r1,#0x40
        0x0000366a:    64d1        .d      STR      r1,[r2,#0x4c]
        0x0000366c:    4611        .F      MOV      r1,r2
        0x0000366e:    6989        .i      LDR      r1,[r1,#0x18]
        0x00003670:    f421417f    !..A    BIC      r1,r1,#0xff00
        0x00003674:    f441510c    A..Q    ORR      r1,r1,#0x2300
        0x00003678:    6191        .a      STR      r1,[r2,#0x18]
        0x0000367a:    4611        .F      MOV      r1,r2
        0x0000367c:    f8d110f8    ....    LDR      r1,[r1,#0xf8]
        0x00003680:    f421417f    !..A    BIC      r1,r1,#0xff00
        0x00003684:    4a82        .J      LDR      r2,[pc,#520] ; [0x3890] = 0x40010090
        0x00003686:    3268        h2      ADDS     r2,r2,#0x68
        0x00003688:    6011        .`      STR      r1,[r2,#0]
        0x0000368a:    2100        .!      MOVS     r1,#0
        0x0000368c:    4a80        .J      LDR      r2,[pc,#512] ; [0x3890] = 0x40010090
        0x0000368e:    3a90        .:      SUBS     r2,r2,#0x90
        0x00003690:    6611        .f      STR      r1,[r2,#0x60]
        0x00003692:    9900        ..      LDR      r1,[sp,#0]
        0x00003694:    f3818810    ....    MSR      PRIMASK,r1
        0x00003698:    e0fe        ..      B        0x3898 ; i2c_pins_enable + 1020
        0x0000369a:    e0a6        ..      B        0x37ea ; i2c_pins_enable + 846
        0x0000369c:    e053        S.      B        0x3746 ; i2c_pins_enable + 682
        0x0000369e:    e7ff        ..      B        0x36a0 ; i2c_pins_enable + 516
        0x000036a0:    f44f6180    O..a    MOV      r1,#0x400
        0x000036a4:    4a7a        zJ      LDR      r2,[pc,#488] ; [0x3890] = 0x40010090
        0x000036a6:    1d12        ..      ADDS     r2,r2,#4
        0x000036a8:    6011        .`      STR      r1,[r2,#0]
        0x000036aa:    0049        I.      LSLS     r1,r1,#1
        0x000036ac:    4a78        xJ      LDR      r2,[pc,#480] ; [0x3890] = 0x40010090
        0x000036ae:    3a90        .:      SUBS     r2,r2,#0x90
        0x000036b0:    f8c21094    ....    STR      r1,[r2,#0x94]
        0x000036b4:    f3ef8110    ....    MRS      r1,PRIMASK
        0x000036b8:    9100        ..      STR      r1,[sp,#0]
        0x000036ba:    b672        r.      CPSID    i
        0x000036bc:    2173        s!      MOVS     r1,#0x73
        0x000036be:    6611        .f      STR      r1,[r2,#0x60]
        0x000036c0:    4611        .F      MOV      r1,r2
        0x000036c2:    6d49        Im      LDR      r1,[r1,#0x54]
        0x000036c4:    f42161e0    !..a    BIC      r1,r1,#0x700
        0x000036c8:    f4416180    A..a    ORR      r1,r1,#0x400
        0x000036cc:    6551        Qe      STR      r1,[r2,#0x54]
        0x000036ce:    4611        .F      MOV      r1,r2
        0x000036d0:    6a89        .j      LDR      r1,[r1,#0x28]
        0x000036d2:    f421017f    !...    BIC      r1,r1,#0xff0000
        0x000036d6:    f441110c    A...    ORR      r1,r1,#0x230000
        0x000036da:    6291        .b      STR      r1,[r2,#0x28]
        0x000036dc:    4611        .F      MOV      r1,r2
        0x000036de:    f8d11108    ....    LDR      r1,[r1,#0x108]
        0x000036e2:    f421017f    !...    BIC      r1,r1,#0xff0000
        0x000036e6:    4a6a        jJ      LDR      r2,[pc,#424] ; [0x3890] = 0x40010090
        0x000036e8:    3278        x2      ADDS     r2,r2,#0x78
        0x000036ea:    6011        .`      STR      r1,[r2,#0]
        0x000036ec:    2100        .!      MOVS     r1,#0
        0x000036ee:    4a68        hJ      LDR      r2,[pc,#416] ; [0x3890] = 0x40010090
        0x000036f0:    3a90        .:      SUBS     r2,r2,#0x90
        0x000036f2:    6611        .f      STR      r1,[r2,#0x60]
        0x000036f4:    9900        ..      LDR      r1,[sp,#0]
        0x000036f6:    f3818810    ....    MSR      PRIMASK,r1
        0x000036fa:    f3ef8110    ....    MRS      r1,PRIMASK
        0x000036fe:    9100        ..      STR      r1,[sp,#0]
        0x00003700:    b672        r.      CPSID    i
        0x00003702:    2173        s!      MOVS     r1,#0x73
        0x00003704:    4a62        bJ      LDR      r2,[pc,#392] ; [0x3890] = 0x40010090
        0x00003706:    3a90        .:      SUBS     r2,r2,#0x90
        0x00003708:    6611        .f      STR      r1,[r2,#0x60]
        0x0000370a:    4611        .F      MOV      r1,r2
        0x0000370c:    6d49        Im      LDR      r1,[r1,#0x54]
        0x0000370e:    f42141e0    !..A    BIC      r1,r1,#0x7000
        0x00003712:    f4414180    A..A    ORR      r1,r1,#0x4000
        0x00003716:    6551        Qe      STR      r1,[r2,#0x54]
        0x00003718:    4611        .F      MOV      r1,r2
        0x0000371a:    6a89        .j      LDR      r1,[r1,#0x28]
        0x0000371c:    f021417f    !..A    BIC      r1,r1,#0xff000000
        0x00003720:    f041510c    A..Q    ORR      r1,r1,#0x23000000
        0x00003724:    6291        .b      STR      r1,[r2,#0x28]
        0x00003726:    4611        .F      MOV      r1,r2
        0x00003728:    f8d11108    ....    LDR      r1,[r1,#0x108]
        0x0000372c:    f021417f    !..A    BIC      r1,r1,#0xff000000
        0x00003730:    4a57        WJ      LDR      r2,[pc,#348] ; [0x3890] = 0x40010090
        0x00003732:    3278        x2      ADDS     r2,r2,#0x78
        0x00003734:    6011        .`      STR      r1,[r2,#0]
        0x00003736:    2100        .!      MOVS     r1,#0
        0x00003738:    4a55        UJ      LDR      r2,[pc,#340] ; [0x3890] = 0x40010090
        0x0000373a:    3a90        .:      SUBS     r2,r2,#0x90
        0x0000373c:    6611        .f      STR      r1,[r2,#0x60]
        0x0000373e:    9900        ..      LDR      r1,[sp,#0]
        0x00003740:    f3818810    ....    MSR      PRIMASK,r1
        0x00003744:    e0a8        ..      B        0x3898 ; i2c_pins_enable + 1020
        0x00003746:    2180        .!      MOVS     r1,#0x80
        0x00003748:    4a51        QJ      LDR      r2,[pc,#324] ; [0x3890] = 0x40010090
        0x0000374a:    1d12        ..      ADDS     r2,r2,#4
        0x0000374c:    6011        .`      STR      r1,[r2,#0]
        0x0000374e:    0049        I.      LSLS     r1,r1,#1
        0x00003750:    4a4f        OJ      LDR      r2,[pc,#316] ; [0x3890] = 0x40010090
        0x00003752:    3a90        .:      SUBS     r2,r2,#0x90
        0x00003754:    f8c21094    ....    STR      r1,[r2,#0x94]
        0x00003758:    f3ef8110    ....    MRS      r1,PRIMASK
        0x0000375c:    9100        ..      STR      r1,[sp,#0]
        0x0000375e:    b672        r.      CPSID    i
        0x00003760:    2173        s!      MOVS     r1,#0x73
        0x00003762:    6611        .f      STR      r1,[r2,#0x60]
        0x00003764:    4611        .F      MOV      r1,r2
        0x00003766:    6d09        .m      LDR      r1,[r1,#0x50]
        0x00003768:    f02141e0    !..A    BIC      r1,r1,#0x70000000
        0x0000376c:    f0414180    A..A    ORR      r1,r1,#0x40000000
        0x00003770:    6511        .e      STR      r1,[r2,#0x50]
        0x00003772:    4611        .F      MOV      r1,r2
        0x00003774:    6a49        Ij      LDR      r1,[r1,#0x24]
        0x00003776:    f021417f    !..A    BIC      r1,r1,#0xff000000
        0x0000377a:    f041510c    A..Q    ORR      r1,r1,#0x23000000
        0x0000377e:    6251        Qb      STR      r1,[r2,#0x24]
        0x00003780:    4611        .F      MOV      r1,r2
        0x00003782:    f8d11104    ....    LDR      r1,[r1,#0x104]
        0x00003786:    f021417f    !..A    BIC      r1,r1,#0xff000000
        0x0000378a:    4a41        AJ      LDR      r2,[pc,#260] ; [0x3890] = 0x40010090
        0x0000378c:    3274        t2      ADDS     r2,r2,#0x74
        0x0000378e:    6011        .`      STR      r1,[r2,#0]
        0x00003790:    2100        .!      MOVS     r1,#0
        0x00003792:    4a3f        ?J      LDR      r2,[pc,#252] ; [0x3890] = 0x40010090
        0x00003794:    3a90        .:      SUBS     r2,r2,#0x90
        0x00003796:    6611        .f      STR      r1,[r2,#0x60]
        0x00003798:    9900        ..      LDR      r1,[sp,#0]
        0x0000379a:    f3818810    ....    MSR      PRIMASK,r1
        0x0000379e:    f3ef8110    ....    MRS      r1,PRIMASK
        0x000037a2:    9100        ..      STR      r1,[sp,#0]
        0x000037a4:    b672        r.      CPSID    i
        0x000037a6:    2173        s!      MOVS     r1,#0x73
        0x000037a8:    4a39        9J      LDR      r2,[pc,#228] ; [0x3890] = 0x40010090
        0x000037aa:    3a90        .:      SUBS     r2,r2,#0x90
        0x000037ac:    6611        .f      STR      r1,[r2,#0x60]
        0x000037ae:    4611        .F      MOV      r1,r2
        0x000037b0:    6d49        Im      LDR      r1,[r1,#0x54]
        0x000037b2:    f0210107    !...    BIC      r1,r1,#7
        0x000037b6:    f0410104    A...    ORR      r1,r1,#4
        0x000037ba:    6551        Qe      STR      r1,[r2,#0x54]
        0x000037bc:    4611        .F      MOV      r1,r2
        0x000037be:    6a89        .j      LDR      r1,[r1,#0x28]
        0x000037c0:    f02101ff    !...    BIC      r1,r1,#0xff
        0x000037c4:    f0410123    A.#.    ORR      r1,r1,#0x23
        0x000037c8:    6291        .b      STR      r1,[r2,#0x28]
        0x000037ca:    4611        .F      MOV      r1,r2
        0x000037cc:    f8d11108    ....    LDR      r1,[r1,#0x108]
        0x000037d0:    f02101ff    !...    BIC      r1,r1,#0xff
        0x000037d4:    4a2e        .J      LDR      r2,[pc,#184] ; [0x3890] = 0x40010090
        0x000037d6:    3278        x2      ADDS     r2,r2,#0x78
        0x000037d8:    6011        .`      STR      r1,[r2,#0]
        0x000037da:    2100        .!      MOVS     r1,#0
        0x000037dc:    4a2c        ,J      LDR      r2,[pc,#176] ; [0x3890] = 0x40010090
        0x000037de:    3a90        .:      SUBS     r2,r2,#0x90
        0x000037e0:    6611        .f      STR      r1,[r2,#0x60]
        0x000037e2:    9900        ..      LDR      r1,[sp,#0]
        0x000037e4:    f3818810    ....    MSR      PRIMASK,r1
        0x000037e8:    e056        V.      B        0x3898 ; i2c_pins_enable + 1020
        0x000037ea:    f44f3180    O..1    MOV      r1,#0x10000
        0x000037ee:    4a28        (J      LDR      r2,[pc,#160] ; [0x3890] = 0x40010090
        0x000037f0:    1d12        ..      ADDS     r2,r2,#4
        0x000037f2:    6011        .`      STR      r1,[r2,#0]
        0x000037f4:    0049        I.      LSLS     r1,r1,#1
        0x000037f6:    4a26        &J      LDR      r2,[pc,#152] ; [0x3890] = 0x40010090
        0x000037f8:    3a90        .:      SUBS     r2,r2,#0x90
        0x000037fa:    f8c21094    ....    STR      r1,[r2,#0x94]
        0x000037fe:    f3ef8110    ....    MRS      r1,PRIMASK
        0x00003802:    9100        ..      STR      r1,[sp,#0]
        0x00003804:    b672        r.      CPSID    i
        0x00003806:    2173        s!      MOVS     r1,#0x73
        0x00003808:    6611        .f      STR      r1,[r2,#0x60]
        0x0000380a:    4611        .F      MOV      r1,r2
        0x0000380c:    6d89        .m      LDR      r1,[r1,#0x58]
        0x0000380e:    f0210107    !...    BIC      r1,r1,#7
        0x00003812:    f0410104    A...    ORR      r1,r1,#4
        0x00003816:    6591        .e      STR      r1,[r2,#0x58]
        0x00003818:    4611        .F      MOV      r1,r2
        0x0000381a:    6b09        .k      LDR      r1,[r1,#0x30]
        0x0000381c:    f02101ff    !...    BIC      r1,r1,#0xff
        0x00003820:    f0410123    A.#.    ORR      r1,r1,#0x23
        0x00003824:    6311        .c      STR      r1,[r2,#0x30]
        0x00003826:    4611        .F      MOV      r1,r2
        0x00003828:    f8d11110    ....    LDR      r1,[r1,#0x110]
        0x0000382c:    f02101ff    !...    BIC      r1,r1,#0xff
        0x00003830:    4a17        .J      LDR      r2,[pc,#92] ; [0x3890] = 0x40010090
        0x00003832:    3280        .2      ADDS     r2,r2,#0x80
        0x00003834:    6011        .`      STR      r1,[r2,#0]
        0x00003836:    2100        .!      MOVS     r1,#0
        0x00003838:    4a15        .J      LDR      r2,[pc,#84] ; [0x3890] = 0x40010090
        0x0000383a:    3a90        .:      SUBS     r2,r2,#0x90
        0x0000383c:    6611        .f      STR      r1,[r2,#0x60]
        0x0000383e:    9900        ..      LDR      r1,[sp,#0]
        0x00003840:    f3818810    ....    MSR      PRIMASK,r1
        0x00003844:    f3ef8110    ....    MRS      r1,PRIMASK
        0x00003848:    9100        ..      STR      r1,[sp,#0]
        0x0000384a:    b672        r.      CPSID    i
        0x0000384c:    2173        s!      MOVS     r1,#0x73
        0x0000384e:    4a10        .J      LDR      r2,[pc,#64] ; [0x3890] = 0x40010090
        0x00003850:    3a90        .:      SUBS     r2,r2,#0x90
        0x00003852:    6611        .f      STR      r1,[r2,#0x60]
        0x00003854:    4611        .F      MOV      r1,r2
        0x00003856:    6d89        .m      LDR      r1,[r1,#0x58]
        0x00003858:    f0210170    !.p.    BIC      r1,r1,#0x70
        0x0000385c:    f0410140    A.@.    ORR      r1,r1,#0x40
        0x00003860:    6591        .e      STR      r1,[r2,#0x58]
        0x00003862:    4611        .F      MOV      r1,r2
        0x00003864:    6b09        .k      LDR      r1,[r1,#0x30]
        0x00003866:    f421417f    !..A    BIC      r1,r1,#0xff00
        0x0000386a:    f441510c    A..Q    ORR      r1,r1,#0x2300
        0x0000386e:    6311        .c      STR      r1,[r2,#0x30]
        0x00003870:    4611        .F      MOV      r1,r2
        0x00003872:    f8d11110    ....    LDR      r1,[r1,#0x110]
        0x00003876:    f421417f    !..A    BIC      r1,r1,#0xff00
        0x0000387a:    4a05        .J      LDR      r2,[pc,#20] ; [0x3890] = 0x40010090
        0x0000387c:    3280        .2      ADDS     r2,r2,#0x80
        0x0000387e:    6011        .`      STR      r1,[r2,#0]
        0x00003880:    2100        .!      MOVS     r1,#0
        0x00003882:    4a03        .J      LDR      r2,[pc,#12] ; [0x3890] = 0x40010090
        0x00003884:    3a90        .:      SUBS     r2,r2,#0x90
        0x00003886:    6611        .f      STR      r1,[r2,#0x60]
        0x00003888:    9900        ..      LDR      r1,[sp,#0]
        0x0000388a:    f3818810    ....    MSR      PRIMASK,r1
        0x0000388e:    e003        ..      B        0x3898 ; i2c_pins_enable + 1020
    $d
        0x00003890:    40010090    ...@    DCD    1073807504
    $t
        0x00003894:    bf00        ..      NOP      
        0x00003896:    e7fe        ..      B        0x3896 ; i2c_pins_enable + 1018
        0x00003898:    bf00        ..      NOP      
        0x0000389a:    bd08        ..      POP      {r3,pc}
    i.i2c_pull_and_wait_scl_hi
    i2c_pull_and_wait_scl_hi
        0x0000389c:    b570        p.      PUSH     {r4-r6,lr}
        0x0000389e:    4c0d        .L      LDR      r4,[pc,#52] ; [0x38d4] = 0x10000878
        0x000038a0:    68e1        .h      LDR      r1,[r4,#0xc]
        0x000038a2:    69a0        .i      LDR      r0,[r4,#0x18]
        0x000038a4:    6008        .`      STR      r0,[r1,#0]
        0x000038a6:    6961        ai      LDR      r1,[r4,#0x14]
        0x000038a8:    6809        .h      LDR      r1,[r1,#0]
        0x000038aa:    4201        .B      TST      r1,r0
        0x000038ac:    bf08        ..      IT       EQ
        0x000038ae:    f44f75c8    O..u    MOVEQ    r5,#0x190
        0x000038b2:    d10a        ..      BNE      0x38ca ; i2c_pull_and_wait_scl_hi + 46
        0x000038b4:    e001        ..      B        0x38ba ; i2c_pull_and_wait_scl_hi + 30
        0x000038b6:    1e6d        m.      SUBS     r5,r5,#1
        0x000038b8:    d009        ..      BEQ      0x38ce ; i2c_pull_and_wait_scl_hi + 50
        0x000038ba:    2004        .       MOVS     r0,#4
        0x000038bc:    f7fdf89c    ....    BL       am_hal_flash_delay ; 0x9f8
        0x000038c0:    6960        `i      LDR      r0,[r4,#0x14]
        0x000038c2:    6800        .h      LDR      r0,[r0,#0]
        0x000038c4:    69a1        .i      LDR      r1,[r4,#0x18]
        0x000038c6:    4208        .B      TST      r0,r1
        0x000038c8:    d0f5        ..      BEQ      0x38b6 ; i2c_pull_and_wait_scl_hi + 26
        0x000038ca:    2000        .       MOVS     r0,#0
        0x000038cc:    bd70        p.      POP      {r4-r6,pc}
        0x000038ce:    2001        .       MOVS     r0,#1
        0x000038d0:    bd70        p.      POP      {r4-r6,pc}
    $d
        0x000038d2:    0000        ..      DCW    0
        0x000038d4:    10000878    x...    DCD    268437624
    $t
    i.i2c_send_byte
    i2c_send_byte
        0x000038d8:    e92d41f0    -..A    PUSH     {r4-r8,lr}
        0x000038dc:    4c25        %L      LDR      r4,[pc,#148] ; [0x3974] = 0x10000878
        0x000038de:    4607        .F      MOV      r7,r0
        0x000038e0:    2600        .&      MOVS     r6,#0
        0x000038e2:    f04f0880    O...    MOV      r8,#0x80
        0x000038e6:    6921        !i      LDR      r1,[r4,#0x10]
        0x000038e8:    69a0        .i      LDR      r0,[r4,#0x18]
        0x000038ea:    6008        .`      STR      r0,[r1,#0]
        0x000038ec:    fa28f006    (...    LSR      r0,r8,r6
        0x000038f0:    4238        8B      TST      r0,r7
        0x000038f2:    6aa0        .j      LDR      r0,[r4,#0x28]
        0x000038f4:    bf14        ..      ITE      NE
        0x000038f6:    69e1        .i      LDRNE    r1,[r4,#0x1c]
        0x000038f8:    6a21        !j      LDREQ    r1,[r4,#0x20]
        0x000038fa:    6008        .`      STR      r0,[r1,#0]
        0x000038fc:    2007        .       MOVS     r0,#7
        0x000038fe:    f7fdf87b    ..{.    BL       am_hal_flash_delay ; 0x9f8
        0x00003902:    68e1        .h      LDR      r1,[r4,#0xc]
        0x00003904:    69a0        .i      LDR      r0,[r4,#0x18]
        0x00003906:    6008        .`      STR      r0,[r1,#0]
        0x00003908:    6961        ai      LDR      r1,[r4,#0x14]
        0x0000390a:    6809        .h      LDR      r1,[r1,#0]
        0x0000390c:    4201        .B      TST      r1,r0
        0x0000390e:    bf08        ..      IT       EQ
        0x00003910:    f44f75c8    O..u    MOVEQ    r5,#0x190
        0x00003914:    d10a        ..      BNE      0x392c ; i2c_send_byte + 84
        0x00003916:    e001        ..      B        0x391c ; i2c_send_byte + 68
        0x00003918:    1e6d        m.      SUBS     r5,r5,#1
        0x0000391a:    d016        ..      BEQ      0x394a ; i2c_send_byte + 114
        0x0000391c:    2004        .       MOVS     r0,#4
        0x0000391e:    f7fdf86b    ..k.    BL       am_hal_flash_delay ; 0x9f8
        0x00003922:    6960        `i      LDR      r0,[r4,#0x14]
        0x00003924:    6801        .h      LDR      r1,[r0,#0]
        0x00003926:    69a0        .i      LDR      r0,[r4,#0x18]
        0x00003928:    4201        .B      TST      r1,r0
        0x0000392a:    d0f5        ..      BEQ      0x3918 ; i2c_send_byte + 64
        0x0000392c:    2005        .       MOVS     r0,#5
        0x0000392e:    f7fdf863    ..c.    BL       am_hal_flash_delay ; 0x9f8
        0x00003932:    1c76        v.      ADDS     r6,r6,#1
        0x00003934:    2e08        ..      CMP      r6,#8
        0x00003936:    dbd6        ..      BLT      0x38e6 ; i2c_send_byte + 14
        0x00003938:    6921        !i      LDR      r1,[r4,#0x10]
        0x0000393a:    69a0        .i      LDR      r0,[r4,#0x18]
        0x0000393c:    6008        .`      STR      r0,[r1,#0]
        0x0000393e:    2007        .       MOVS     r0,#7
        0x00003940:    f7fdf85a    ..Z.    BL       am_hal_flash_delay ; 0x9f8
        0x00003944:    f7ffffaa    ....    BL       i2c_pull_and_wait_scl_hi ; 0x389c
        0x00003948:    b110        ..      CBZ      r0,0x3950 ; i2c_send_byte + 120
        0x0000394a:    2003        .       MOVS     r0,#3
        0x0000394c:    e8bd81f0    ....    POP      {r4-r8,pc}
        0x00003950:    6a60        `j      LDR      r0,[r4,#0x24]
        0x00003952:    6800        .h      LDR      r0,[r0,#0]
        0x00003954:    6aa1        .j      LDR      r1,[r4,#0x28]
        0x00003956:    4208        .B      TST      r0,r1
        0x00003958:    f04f0005    O...    MOV      r0,#5
        0x0000395c:    d004        ..      BEQ      0x3968 ; i2c_send_byte + 144
        0x0000395e:    f7fdf84b    ..K.    BL       am_hal_flash_delay ; 0x9f8
        0x00003962:    2002        .       MOVS     r0,#2
        0x00003964:    e8bd81f0    ....    POP      {r4-r8,pc}
        0x00003968:    f7fdf846    ..F.    BL       am_hal_flash_delay ; 0x9f8
        0x0000396c:    2000        .       MOVS     r0,#0
        0x0000396e:    e8bd81f0    ....    POP      {r4-r8,pc}
    $d
        0x00003972:    0000        ..      DCW    0
        0x00003974:    10000878    x...    DCD    268437624
    $t
    i.internal_iom_get_int_err
    internal_iom_get_int_err
        0x00003978:    4602        .F      MOV      r2,r0
        0x0000397a:    2000        .       MOVS     r0,#0
        0x0000397c:    2a06        .*      CMP      r2,#6
        0x0000397e:    bf2f        /.      ITEEE    CS
        0x00003980:    2200        ."      MOVCS    r2,#0
        0x00003982:    0312        ..      LSLCC    r2,r2,#12
        0x00003984:    f5024280    ...B    ADDCC    r2,r2,#0x4000
        0x00003988:    f10242a0    ...B    ADDCC    r2,r2,#0x50000000
        0x0000398c:    bf38        8.      IT       CC
        0x0000398e:    f8d22204    ..."    LDRCC    r2,[r2,#0x204]
        0x00003992:    4311        .C      ORRS     r1,r1,r2
        0x00003994:    f0110fcc    ....    TST      r1,#0xcc
        0x00003998:    bf1c        ..      ITT      NE
        0x0000399a:    2005        .       MOVNE    r0,#5
        0x0000399c:    4770        pG      BXNE     lr
        0x0000399e:    f4116fe0    ...o    TST      r1,#0x700
        0x000039a2:    bf1c        ..      ITT      NE
        0x000039a4:    2007        .       MOVNE    r0,#7
        0x000039a6:    4770        pG      BXNE     lr
        0x000039a8:    f0110f10    ....    TST      r1,#0x10
        0x000039ac:    bf18        ..      IT       NE
        0x000039ae:    2006        .       MOVNE    r0,#6
        0x000039b0:    4770        pG      BX       lr
        0x000039b2:    0000        ..      MOVS     r0,r0
    i.iom_set_up
    iom_set_up
        0x000039b4:    b57c        |.      PUSH     {r2-r6,lr}
        0x000039b6:    4604        .F      MOV      r4,r0
        0x000039b8:    460d        .F      MOV      r5,r1
        0x000039ba:    2001        .       MOVS     r0,#1
        0x000039bc:    9001        ..      STR      r0,[sp,#4]
        0x000039be:    4620         F      MOV      r0,r4
        0x000039c0:    f7fef8fa    ....    BL       am_hal_iom_pwrctrl_enable ; 0x1bb8
        0x000039c4:    2d00        .-      CMP      r5,#0
        0x000039c6:    d07d        }.      BEQ      0x3ac4 ; iom_set_up + 272
        0x000039c8:    496e        nI      LDR      r1,[pc,#440] ; [0x3b84] = 0x10000008
        0x000039ca:    4620         F      MOV      r0,r4
        0x000039cc:    f7fdfa4a    ..J.    BL       am_hal_iom_config ; 0xe64
        0x000039d0:    4620         F      MOV      r0,r4
        0x000039d2:    f7fcfce7    ....    BL       am_bsp_iom_spi_pins_enable ; 0x3a4
        0x000039d6:    486c        lH      LDR      r0,[pc,#432] ; [0x3b88] = 0x4240
        0x000039d8:    f8500034    P.4.    LDR      r0,[r0,r4,LSL #3]
        0x000039dc:    2832        2(      CMP      r0,#0x32
        0x000039de:    d272        r.      BCS      0x3ac6 ; iom_set_up + 274
        0x000039e0:    f3ef8010    ....    MRS      r0,PRIMASK
        0x000039e4:    9000        ..      STR      r0,[sp,#0]
        0x000039e6:    b672        r.      CPSID    i
        0x000039e8:    2073        s       MOVS     r0,#0x73
        0x000039ea:    4968        hI      LDR      r1,[pc,#416] ; [0x3b8c] = 0x40010000
        0x000039ec:    6608        .f      STR      r0,[r1,#0x60]
        0x000039ee:    4866        fH      LDR      r0,[pc,#408] ; [0x3b88] = 0x4240
        0x000039f0:    eb0000c4    ....    ADD      r0,r0,r4,LSL #3
        0x000039f4:    8880        ..      LDRH     r0,[r0,#4]
        0x000039f6:    f3c02002    ...     UBFX     r0,r0,#8,#3
        0x000039fa:    4963        cI      LDR      r1,[pc,#396] ; [0x3b88] = 0x4240
        0x000039fc:    f8111034    ..4.    LDRB     r1,[r1,r4,LSL #3]
        0x00003a00:    0749        I.      LSLS     r1,r1,#29
        0x00003a02:    0ec9        ..      LSRS     r1,r1,#27
        0x00003a04:    4088        .@      LSLS     r0,r0,r1
        0x00003a06:    4960        `I      LDR      r1,[pc,#384] ; [0x3b88] = 0x4240
        0x00003a08:    f8111034    ..4.    LDRB     r1,[r1,r4,LSL #3]
        0x00003a0c:    f00101f8    ....    AND      r1,r1,#0xf8
        0x00003a10:    4a5e        ^J      LDR      r2,[pc,#376] ; [0x3b8c] = 0x40010000
        0x00003a12:    eb020151    ..Q.    ADD      r1,r2,r1,LSR #1
        0x00003a16:    6c09        .l      LDR      r1,[r1,#0x40]
        0x00003a18:    4a5b        [J      LDR      r2,[pc,#364] ; [0x3b88] = 0x4240
        0x00003a1a:    f8122034    ..4     LDRB     r2,[r2,r4,LSL #3]
        0x00003a1e:    0752        R.      LSLS     r2,r2,#29
        0x00003a20:    0ed3        ..      LSRS     r3,r2,#27
        0x00003a22:    2207        ."      MOVS     r2,#7
        0x00003a24:    409a        .@      LSLS     r2,r2,r3
        0x00003a26:    4391        .C      BICS     r1,r1,r2
        0x00003a28:    4308        .C      ORRS     r0,r0,r1
        0x00003a2a:    4957        WI      LDR      r1,[pc,#348] ; [0x3b88] = 0x4240
        0x00003a2c:    f8111034    ..4.    LDRB     r1,[r1,r4,LSL #3]
        0x00003a30:    f00101f8    ....    AND      r1,r1,#0xf8
        0x00003a34:    4a55        UJ      LDR      r2,[pc,#340] ; [0x3b8c] = 0x40010000
        0x00003a36:    eb020151    ..Q.    ADD      r1,r2,r1,LSR #1
        0x00003a3a:    6408        .d      STR      r0,[r1,#0x40]
        0x00003a3c:    4852        RH      LDR      r0,[pc,#328] ; [0x3b88] = 0x4240
        0x00003a3e:    eb0000c4    ....    ADD      r0,r0,r4,LSL #3
        0x00003a42:    7900        .y      LDRB     r0,[r0,#4]
        0x00003a44:    4950        PI      LDR      r1,[pc,#320] ; [0x3b88] = 0x4240
        0x00003a46:    f8111034    ..4.    LDRB     r1,[r1,r4,LSL #3]
        0x00003a4a:    0789        ..      LSLS     r1,r1,#30
        0x00003a4c:    0ec9        ..      LSRS     r1,r1,#27
        0x00003a4e:    4088        .@      LSLS     r0,r0,r1
        0x00003a50:    494d        MI      LDR      r1,[pc,#308] ; [0x3b88] = 0x4240
        0x00003a52:    f8111034    ..4.    LDRB     r1,[r1,r4,LSL #3]
        0x00003a56:    f00101fc    ....    AND      r1,r1,#0xfc
        0x00003a5a:    5889        .X      LDR      r1,[r1,r2]
        0x00003a5c:    4a4a        JJ      LDR      r2,[pc,#296] ; [0x3b88] = 0x4240
        0x00003a5e:    f8122034    ..4     LDRB     r2,[r2,r4,LSL #3]
        0x00003a62:    0792        ..      LSLS     r2,r2,#30
        0x00003a64:    0ed3        ..      LSRS     r3,r2,#27
        0x00003a66:    22ff        ."      MOVS     r2,#0xff
        0x00003a68:    409a        .@      LSLS     r2,r2,r3
        0x00003a6a:    4391        .C      BICS     r1,r1,r2
        0x00003a6c:    4308        .C      ORRS     r0,r0,r1
        0x00003a6e:    4946        FI      LDR      r1,[pc,#280] ; [0x3b88] = 0x4240
        0x00003a70:    f8111034    ..4.    LDRB     r1,[r1,r4,LSL #3]
        0x00003a74:    f00101fc    ....    AND      r1,r1,#0xfc
        0x00003a78:    4a44        DJ      LDR      r2,[pc,#272] ; [0x3b8c] = 0x40010000
        0x00003a7a:    5088        .P      STR      r0,[r1,r2]
        0x00003a7c:    4842        BH      LDR      r0,[pc,#264] ; [0x3b88] = 0x4240
        0x00003a7e:    eb0000c4    ....    ADD      r0,r0,r4,LSL #3
        0x00003a82:    6840        @h      LDR      r0,[r0,#4]
        0x00003a84:    f3c04007    ...@    UBFX     r0,r0,#16,#8
        0x00003a88:    493f        ?I      LDR      r1,[pc,#252] ; [0x3b88] = 0x4240
        0x00003a8a:    f8111034    ..4.    LDRB     r1,[r1,r4,LSL #3]
        0x00003a8e:    0789        ..      LSLS     r1,r1,#30
        0x00003a90:    0ec9        ..      LSRS     r1,r1,#27
        0x00003a92:    4088        .@      LSLS     r0,r0,r1
        0x00003a94:    493c        <I      LDR      r1,[pc,#240] ; [0x3b88] = 0x4240
        0x00003a96:    f8111034    ..4.    LDRB     r1,[r1,r4,LSL #3]
        0x00003a9a:    f00101fc    ....    AND      r1,r1,#0xfc
        0x00003a9e:    4411        .D      ADD      r1,r1,r2
        0x00003aa0:    f8d110e0    ....    LDR      r1,[r1,#0xe0]
        0x00003aa4:    4a38        8J      LDR      r2,[pc,#224] ; [0x3b88] = 0x4240
        0x00003aa6:    f8122034    ..4     LDRB     r2,[r2,r4,LSL #3]
        0x00003aaa:    0792        ..      LSLS     r2,r2,#30
        0x00003aac:    0ed3        ..      LSRS     r3,r2,#27
        0x00003aae:    22ff        ."      MOVS     r2,#0xff
        0x00003ab0:    409a        .@      LSLS     r2,r2,r3
        0x00003ab2:    4391        .C      BICS     r1,r1,r2
        0x00003ab4:    4308        .C      ORRS     r0,r0,r1
        0x00003ab6:    4934        4I      LDR      r1,[pc,#208] ; [0x3b88] = 0x4240
        0x00003ab8:    f8111034    ..4.    LDRB     r1,[r1,r4,LSL #3]
        0x00003abc:    f00101fc    ....    AND      r1,r1,#0xfc
        0x00003ac0:    4a32        2J      LDR      r2,[pc,#200] ; [0x3b8c] = 0x40010000
        0x00003ac2:    e001        ..      B        0x3ac8 ; iom_set_up + 276
        0x00003ac4:    e00a        ..      B        0x3adc ; iom_set_up + 296
        0x00003ac6:    e010        ..      B        0x3aea ; iom_set_up + 310
        0x00003ac8:    4411        .D      ADD      r1,r1,r2
        0x00003aca:    f8c100e0    ....    STR      r0,[r1,#0xe0]
        0x00003ace:    2000        .       MOVS     r0,#0
        0x00003ad0:    4611        .F      MOV      r1,r2
        0x00003ad2:    6608        .f      STR      r0,[r1,#0x60]
        0x00003ad4:    9800        ..      LDR      r0,[sp,#0]
        0x00003ad6:    f3808810    ....    MSR      PRIMASK,r0
        0x00003ada:    e006        ..      B        0x3aea ; iom_set_up + 310
        0x00003adc:    492c        ,I      LDR      r1,[pc,#176] ; [0x3b90] = 0x10000014
        0x00003ade:    4620         F      MOV      r0,r4
        0x00003ae0:    f7fdf9c0    ....    BL       am_hal_iom_config ; 0xe64
        0x00003ae4:    4620         F      MOV      r0,r4
        0x00003ae6:    f7fffcd9    ....    BL       i2c_pins_enable ; 0x349c
        0x00003aea:    4620         F      MOV      r0,r4
        0x00003aec:    f7fcfbec    ....    BL       am_bsp_iom_enable ; 0x2c8
        0x00003af0:    f3ef8010    ....    MRS      r0,PRIMASK
        0x00003af4:    9000        ..      STR      r0,[sp,#0]
        0x00003af6:    b672        r.      CPSID    i
        0x00003af8:    2073        s       MOVS     r0,#0x73
        0x00003afa:    4924        $I      LDR      r1,[pc,#144] ; [0x3b8c] = 0x40010000
        0x00003afc:    6608        .f      STR      r0,[r1,#0x60]
        0x00003afe:    4608        .F      MOV      r0,r1
        0x00003b00:    6c40        @l      LDR      r0,[r0,#0x44]
        0x00003b02:    f42060e0     ..`    BIC      r0,r0,#0x700
        0x00003b06:    6448        Hd      STR      r0,[r1,#0x44]
        0x00003b08:    4608        .F      MOV      r0,r1
        0x00003b0a:    6880        .h      LDR      r0,[r0,#8]
        0x00003b0c:    f420007f     ...    BIC      r0,r0,#0xff0000
        0x00003b10:    f44010d0    @...    ORR      r0,r0,#0x1a0000
        0x00003b14:    6088        .`      STR      r0,[r1,#8]
        0x00003b16:    481d        .H      LDR      r0,[pc,#116] ; [0x3b8c] = 0x40010000
        0x00003b18:    30e8        .0      ADDS     r0,r0,#0xe8
        0x00003b1a:    6800        .h      LDR      r0,[r0,#0]
        0x00003b1c:    f420007f     ...    BIC      r0,r0,#0xff0000
        0x00003b20:    f8c100e8    ....    STR      r0,[r1,#0xe8]
        0x00003b24:    2000        .       MOVS     r0,#0
        0x00003b26:    6608        .f      STR      r0,[r1,#0x60]
        0x00003b28:    9800        ..      LDR      r0,[sp,#0]
        0x00003b2a:    f3808810    ....    MSR      PRIMASK,r0
        0x00003b2e:    f3ef8010    ....    MRS      r0,PRIMASK
        0x00003b32:    9000        ..      STR      r0,[sp,#0]
        0x00003b34:    b672        r.      CPSID    i
        0x00003b36:    2073        s       MOVS     r0,#0x73
        0x00003b38:    4914        .I      LDR      r1,[pc,#80] ; [0x3b8c] = 0x40010000
        0x00003b3a:    6608        .f      STR      r0,[r1,#0x60]
        0x00003b3c:    4608        .F      MOV      r0,r1
        0x00003b3e:    6c40        @l      LDR      r0,[r0,#0x44]
        0x00003b40:    f4206000     ..`    BIC      r0,r0,#0x800
        0x00003b44:    6448        Hd      STR      r0,[r1,#0x44]
        0x00003b46:    2000        .       MOVS     r0,#0
        0x00003b48:    6608        .f      STR      r0,[r1,#0x60]
        0x00003b4a:    9800        ..      LDR      r0,[sp,#0]
        0x00003b4c:    f3808810    ....    MSR      PRIMASK,r0
        0x00003b50:    f44f6080    O..`    MOV      r0,#0x400
        0x00003b54:    2100        .!      MOVS     r1,#0
        0x00003b56:    f7fcff71    ..q.    BL       am_hal_gpio_int_clear ; 0xa3c
        0x00003b5a:    490e        .I      LDR      r1,[pc,#56] ; [0x3b94] = 0x3491
        0x00003b5c:    200a        .       MOVS     r0,#0xa
        0x00003b5e:    f7fcff8d    ....    BL       am_hal_gpio_int_register ; 0xa7c
        0x00003b62:    f44f6080    O..`    MOV      r0,#0x400
        0x00003b66:    2100        .!      MOVS     r1,#0
        0x00003b68:    f7fcff7a    ..z.    BL       am_hal_gpio_int_enable ; 0xa60
        0x00003b6c:    201c        .       MOVS     r0,#0x1c
        0x00003b6e:    f7fdf953    ..S.    BL       am_hal_interrupt_enable ; 0xe18
        0x00003b72:    2001        .       MOVS     r0,#1
        0x00003b74:    ab01        ..      ADD      r3,sp,#4
        0x00003b76:    22f8        ."      MOVS     r2,#0xf8
        0x00003b78:    4629        )F      MOV      r1,r5
        0x00003b7a:    9000        ..      STR      r0,[sp,#0]
        0x00003b7c:    4620         F      MOV      r0,r4
        0x00003b7e:    f000f82d    ..-.    BL       iom_slave_write ; 0x3bdc
        0x00003b82:    bd7c        |.      POP      {r2-r6,pc}
    $d
        0x00003b84:    10000008    ....    DCD    268435464
        0x00003b88:    00004240    @B..    DCD    16960
        0x00003b8c:    40010000    ...@    DCD    1073807360
        0x00003b90:    10000014    ....    DCD    268435476
        0x00003b94:    00003491    .4..    DCD    13457
    $t
    i.iom_slave_read
    iom_slave_read
        0x00003b98:    e92d43f8    -..C    PUSH     {r3-r9,lr}
        0x00003b9c:    4607        .F      MOV      r7,r0
        0x00003b9e:    460d        .F      MOV      r5,r1
        0x00003ba0:    4614        .F      MOV      r4,r2
        0x00003ba2:    461e        .F      MOV      r6,r3
        0x00003ba4:    f8dd8020    .. .    LDR      r8,[sp,#0x20]
        0x00003ba8:    b15d        ].      CBZ      r5,0x3bc2 ; iom_slave_read + 42
        0x00003baa:    f44f407f    O..@    MOV      r0,#0xff00
        0x00003bae:    ea002004    ...     AND      r0,r0,r4,LSL #8
        0x00003bb2:    4643        CF      MOV      r3,r8
        0x00003bb4:    4632        2F      MOV      r2,r6
        0x00003bb6:    2100        .!      MOVS     r1,#0
        0x00003bb8:    9000        ..      STR      r0,[sp,#0]
        0x00003bba:    4638        8F      MOV      r0,r7
        0x00003bbc:    f7fef85a    ..Z.    BL       am_hal_iom_spi_read ; 0x1c74
        0x00003bc0:    e00a        ..      B        0x3bd8 ; iom_slave_read + 64
        0x00003bc2:    f44f407f    O..@    MOV      r0,#0xff00
        0x00003bc6:    ea002004    ...     AND      r0,r0,r4,LSL #8
        0x00003bca:    4643        CF      MOV      r3,r8
        0x00003bcc:    4632        2F      MOV      r2,r6
        0x00003bce:    2110        .!      MOVS     r1,#0x10
        0x00003bd0:    9000        ..      STR      r0,[sp,#0]
        0x00003bd2:    4638        8F      MOV      r0,r7
        0x00003bd4:    f7fdfc36    ..6.    BL       am_hal_iom_i2c_read ; 0x1444
        0x00003bd8:    e8bd83f8    ....    POP      {r3-r9,pc}
    i.iom_slave_write
    iom_slave_write
        0x00003bdc:    e92d43f8    -..C    PUSH     {r3-r9,lr}
        0x00003be0:    4607        .F      MOV      r7,r0
        0x00003be2:    460d        .F      MOV      r5,r1
        0x00003be4:    4614        .F      MOV      r4,r2
        0x00003be6:    461e        .F      MOV      r6,r3
        0x00003be8:    f8dd8020    .. .    LDR      r8,[sp,#0x20]
        0x00003bec:    b15d        ].      CBZ      r5,0x3c06 ; iom_slave_write + 42
        0x00003bee:    f44f407f    O..@    MOV      r0,#0xff00
        0x00003bf2:    ea002004    ...     AND      r0,r0,r4,LSL #8
        0x00003bf6:    4643        CF      MOV      r3,r8
        0x00003bf8:    4632        2F      MOV      r2,r6
        0x00003bfa:    2100        .!      MOVS     r1,#0
        0x00003bfc:    9000        ..      STR      r0,[sp,#0]
        0x00003bfe:    4638        8F      MOV      r0,r7
        0x00003c00:    f7fefa08    ....    BL       am_hal_iom_spi_write ; 0x2014
        0x00003c04:    e00a        ..      B        0x3c1c ; iom_slave_write + 64
        0x00003c06:    f44f407f    O..@    MOV      r0,#0xff00
        0x00003c0a:    ea002004    ...     AND      r0,r0,r4,LSL #8
        0x00003c0e:    4643        CF      MOV      r3,r8
        0x00003c10:    4632        2F      MOV      r2,r6
        0x00003c12:    2110        .!      MOVS     r1,#0x10
        0x00003c14:    9000        ..      STR      r0,[sp,#0]
        0x00003c16:    4638        8F      MOV      r0,r7
        0x00003c18:    f7fdfdda    ....    BL       am_hal_iom_i2c_write ; 0x17d0
        0x00003c1c:    e8bd83f8    ....    POP      {r3-r9,pc}
    i.itm_start
    itm_start
        0x00003c20:    b508        ..      PUSH     {r3,lr}
        0x00003c22:    4814        .H      LDR      r0,[pc,#80] ; [0x3c74] = 0x769
        0x00003c24:    f7fff906    ....    BL       am_util_stdio_printf_init ; 0x2e34
        0x00003c28:    f3ef8010    ....    MRS      r0,PRIMASK
        0x00003c2c:    9000        ..      STR      r0,[sp,#0]
        0x00003c2e:    b672        r.      CPSID    i
        0x00003c30:    2073        s       MOVS     r0,#0x73
        0x00003c32:    4911        .I      LDR      r1,[pc,#68] ; [0x3c78] = 0x40010000
        0x00003c34:    6608        .f      STR      r0,[r1,#0x60]
        0x00003c36:    4608        .F      MOV      r0,r1
        0x00003c38:    6d40        @m      LDR      r0,[r0,#0x54]
        0x00003c3a:    f0200070     .p.    BIC      r0,r0,#0x70
        0x00003c3e:    6548        He      STR      r0,[r1,#0x54]
        0x00003c40:    4608        .F      MOV      r0,r1
        0x00003c42:    6a80        .j      LDR      r0,[r0,#0x28]
        0x00003c44:    f420407f     ..@    BIC      r0,r0,#0xff00
        0x00003c48:    f4405080    @..P    ORR      r0,r0,#0x1000
        0x00003c4c:    6288        .b      STR      r0,[r1,#0x28]
        0x00003c4e:    480b        .H      LDR      r0,[pc,#44] ; [0x3c7c] = 0x40010108
        0x00003c50:    6800        .h      LDR      r0,[r0,#0]
        0x00003c52:    f420407f     ..@    BIC      r0,r0,#0xff00
        0x00003c56:    f8c10108    ....    STR      r0,[r1,#0x108]
        0x00003c5a:    2000        .       MOVS     r0,#0
        0x00003c5c:    6608        .f      STR      r0,[r1,#0x60]
        0x00003c5e:    9800        ..      LDR      r0,[sp,#0]
        0x00003c60:    f3808810    ....    MSR      PRIMASK,r0
        0x00003c64:    f7fefddc    ....    BL       am_hal_itm_enable ; 0x2820
        0x00003c68:    f7fcfaf6    ....    BL       am_bsp_debug_printf_enable ; 0x258
        0x00003c6c:    f7fff8e8    ....    BL       am_util_stdio_terminal_clear ; 0x2e40
        0x00003c70:    bd08        ..      POP      {r3,pc}
    $d
        0x00003c72:    0000        ..      DCW    0
        0x00003c74:    00000769    i...    DCD    1897
        0x00003c78:    40010000    ...@    DCD    1073807360
        0x00003c7c:    40010108    ...@    DCD    1073807624
    $t
    i.main
    main
        0x00003c80:    b50e        ..      PUSH     {r1-r3,lr}
        0x00003c82:    2500        .%      MOVS     r5,#0
        0x00003c84:    2401        .$      MOVS     r4,#1
        0x00003c86:    2600        .&      MOVS     r6,#0
        0x00003c88:    2700        .'      MOVS     r7,#0
        0x00003c8a:    b114        ..      CBZ      r4,0x3c92 ; main + 18
        0x00003c8c:    f24030ff    @..0    MOV      r0,#0x3ff
        0x00003c90:    e000        ..      B        0x3c94 ; main + 20
        0x00003c92:    20ff        .       MOVS     r0,#0xff
        0x00003c94:    4680        .F      MOV      r8,r0
        0x00003c96:    2000        .       MOVS     r0,#0
        0x00003c98:    f7fcfe0c    ....    BL       am_hal_clkgen_sysclk_select ; 0x8b4
        0x00003c9c:    4846        FH      LDR      r0,[pc,#280] ; [0x3db8] = 0x4270
        0x00003c9e:    f7fcfd85    ....    BL       am_hal_cachectrl_enable ; 0x7ac
        0x00003ca2:    f7fcfd63    ..c.    BL       am_bsp_low_power_init ; 0x76c
        0x00003ca6:    f7ffffbb    ....    BL       itm_start ; 0x3c20
        0x00003caa:    f2427110    B..q    MOV      r1,#0x2710
        0x00003cae:    a043        C.      ADR      r0,{pc}+0x10e ; 0x3dbc
        0x00003cb0:    f7fff8a8    ....    BL       am_util_stdio_printf ; 0x2e04
        0x00003cb4:    4621        !F      MOV      r1,r4
        0x00003cb6:    4628        (F      MOV      r0,r5
        0x00003cb8:    f7fffe7c    ..|.    BL       iom_set_up ; 0x39b4
        0x00003cbc:    2000        .       MOVS     r0,#0
        0x00003cbe:    9002        ..      STR      r0,[sp,#8]
        0x00003cc0:    2001        .       MOVS     r0,#1
        0x00003cc2:    ab02        ..      ADD      r3,sp,#8
        0x00003cc4:    2280        ."      MOVS     r2,#0x80
        0x00003cc6:    4621        !F      MOV      r1,r4
        0x00003cc8:    9000        ..      STR      r0,[sp,#0]
        0x00003cca:    4628        (F      MOV      r0,r5
        0x00003ccc:    f7ffff86    ....    BL       iom_slave_write ; 0x3bdc
        0x00003cd0:    e069        i.      B        0x3da6 ; main + 294
        0x00003cd2:    f7fcfa5d    ..].    BL       am_hal_interrupt_master_disable ; 0x190
        0x00003cd6:    4681        .F      MOV      r9,r0
        0x00003cd8:    4848        HH      LDR      r0,[pc,#288] ; [0x3dfc] = 0x10000004
        0x00003cda:    7800        .x      LDRB     r0,[r0,#0]
        0x00003cdc:    2801        .(      CMP      r0,#1
        0x00003cde:    d15b        [.      BNE      0x3d98 ; main + 280
        0x00003ce0:    4648        HF      MOV      r0,r9
        0x00003ce2:    f7fcfa59    ..Y.    BL       am_hal_interrupt_master_set ; 0x198
        0x00003ce6:    2000        .       MOVS     r0,#0
        0x00003ce8:    4944        DI      LDR      r1,[pc,#272] ; [0x3dfc] = 0x10000004
        0x00003cea:    7008        .p      STRB     r0,[r1,#0]
        0x00003cec:    2001        .       MOVS     r0,#1
        0x00003cee:    ab02        ..      ADD      r3,sp,#8
        0x00003cf0:    2279        y"      MOVS     r2,#0x79
        0x00003cf2:    4621        !F      MOV      r1,r4
        0x00003cf4:    9000        ..      STR      r0,[sp,#0]
        0x00003cf6:    4628        (F      MOV      r0,r5
        0x00003cf8:    f7ffff4e    ..N.    BL       iom_slave_read ; 0x3b98
        0x00003cfc:    9802        ..      LDR      r0,[sp,#8]
        0x00003cfe:    f0000001    ....    AND      r0,r0,#1
        0x00003d02:    b148        H.      CBZ      r0,0x3d18 ; main + 152
        0x00003d04:    2001        .       MOVS     r0,#1
        0x00003d06:    9002        ..      STR      r0,[sp,#8]
        0x00003d08:    ab02        ..      ADD      r3,sp,#8
        0x00003d0a:    22fa        ."      MOVS     r2,#0xfa
        0x00003d0c:    4621        !F      MOV      r1,r4
        0x00003d0e:    9000        ..      STR      r0,[sp,#0]
        0x00003d10:    4628        (F      MOV      r0,r5
        0x00003d12:    f7ffff63    ..c.    BL       iom_slave_write ; 0x3bdc
        0x00003d16:    2601        .&      MOVS     r6,#1
        0x00003d18:    2e00        ..      CMP      r6,#0
        0x00003d1a:    d043        C.      BEQ      0x3da4 ; main + 292
        0x00003d1c:    2000        .       MOVS     r0,#0
        0x00003d1e:    9001        ..      STR      r0,[sp,#4]
        0x00003d20:    2600        .&      MOVS     r6,#0
        0x00003d22:    2002        .       MOVS     r0,#2
        0x00003d24:    ab01        ..      ADD      r3,sp,#4
        0x00003d26:    227c        |"      MOVS     r2,#0x7c
        0x00003d28:    4621        !F      MOV      r1,r4
        0x00003d2a:    9000        ..      STR      r0,[sp,#0]
        0x00003d2c:    4628        (F      MOV      r0,r5
        0x00003d2e:    f7ffff33    ..3.    BL       iom_slave_read ; 0x3b98
        0x00003d32:    9801        ..      LDR      r0,[sp,#4]
        0x00003d34:    4540        @E      CMP      r0,r8
        0x00003d36:    d901        ..      BLS      0x3d3c ; main + 188
        0x00003d38:    4640        @F      MOV      r0,r8
        0x00003d3a:    e000        ..      B        0x3d3e ; main + 190
        0x00003d3c:    9801        ..      LDR      r0,[sp,#4]
        0x00003d3e:    9001        ..      STR      r0,[sp,#4]
        0x00003d40:    f7fffa68    ..h.    BL       clear_rx_buf ; 0x3214
        0x00003d44:    9801        ..      LDR      r0,[sp,#4]
        0x00003d46:    4b2e        .K      LDR      r3,[pc,#184] ; [0x3e00] = 0x100000e0
        0x00003d48:    227f        ."      MOVS     r2,#0x7f
        0x00003d4a:    4621        !F      MOV      r1,r4
        0x00003d4c:    9000        ..      STR      r0,[sp,#0]
        0x00003d4e:    4628        (F      MOV      r0,r5
        0x00003d50:    f7ffff22    ..".    BL       iom_slave_read ; 0x3b98
        0x00003d54:    9801        ..      LDR      r0,[sp,#4]
        0x00003d56:    f000f9b1    ....    BL       validate_rx_buf ; 0x40bc
        0x00003d5a:    b928        (.      CBNZ     r0,0x3d68 ; main + 232
        0x00003d5c:    4829        )H      LDR      r0,[pc,#164] ; [0x3e04] = 0x10000000
        0x00003d5e:    9a01        ..      LDR      r2,[sp,#4]
        0x00003d60:    6801        .h      LDR      r1,[r0,#0]
        0x00003d62:    a029        ).      ADR      r0,{pc}+0xa6 ; 0x3e08
        0x00003d64:    f7fff84e    ..N.    BL       am_util_stdio_printf ; 0x2e04
        0x00003d68:    2002        .       MOVS     r0,#2
        0x00003d6a:    9002        ..      STR      r0,[sp,#8]
        0x00003d6c:    4825        %H      LDR      r0,[pc,#148] ; [0x3e04] = 0x10000000
        0x00003d6e:    6800        .h      LDR      r0,[r0,#0]
        0x00003d70:    f000f992    ....    BL       update_progress ; 0x4098
        0x00003d74:    4823        #H      LDR      r0,[pc,#140] ; [0x3e04] = 0x10000000
        0x00003d76:    6800        .h      LDR      r0,[r0,#0]
        0x00003d78:    f2427110    B..q    MOV      r1,#0x2710
        0x00003d7c:    4288        .B      CMP      r0,r1
        0x00003d7e:    d302        ..      BCC      0x3d86 ; main + 262
        0x00003d80:    2701        .'      MOVS     r7,#1
        0x00003d82:    2001        .       MOVS     r0,#1
        0x00003d84:    9002        ..      STR      r0,[sp,#8]
        0x00003d86:    2001        .       MOVS     r0,#1
        0x00003d88:    ab02        ..      ADD      r3,sp,#8
        0x00003d8a:    2280        ."      MOVS     r2,#0x80
        0x00003d8c:    4621        !F      MOV      r1,r4
        0x00003d8e:    9000        ..      STR      r0,[sp,#0]
        0x00003d90:    4628        (F      MOV      r0,r5
        0x00003d92:    f7ffff23    ..#.    BL       iom_slave_write ; 0x3bdc
        0x00003d96:    e005        ..      B        0x3da4 ; main + 292
        0x00003d98:    2001        .       MOVS     r0,#1
        0x00003d9a:    f7feff73    ..s.    BL       am_hal_sysctrl_sleep ; 0x2c84
        0x00003d9e:    4648        HF      MOV      r0,r9
        0x00003da0:    f7fcf9fa    ....    BL       am_hal_interrupt_master_set ; 0x198
        0x00003da4:    bf00        ..      NOP      
        0x00003da6:    2f00        ./      CMP      r7,#0
        0x00003da8:    d093        ..      BEQ      0x3cd2 ; main + 82
        0x00003daa:    4816        .H      LDR      r0,[pc,#88] ; [0x3e04] = 0x10000000
        0x00003dac:    6801        .h      LDR      r1,[r0,#0]
        0x00003dae:    a021        !.      ADR      r0,{pc}+0x86 ; 0x3e34
        0x00003db0:    f7fff828    ..(.    BL       am_util_stdio_printf ; 0x2e04
        0x00003db4:    bf00        ..      NOP      
        0x00003db6:    e7fe        ..      B        0x3db6 ; main + 310
    $d
        0x00003db8:    00004270    pB..    DCD    17008
        0x00003dbc:    20534f49    IOS     DCD    542330697
        0x00003dc0:    74736554    Test    DCD    1953719636
        0x00003dc4:    736f4820     Hos    DCD    1936672800
        0x00003dc8:    57203a74    t: W    DCD    1461729908
        0x00003dcc:    69746961    aiti    DCD    1769236833
        0x00003dd0:    6620676e    ng f    DCD    1713399662
        0x00003dd4:    6120726f    or a    DCD    1629516399
        0x00003dd8:    656c2074    t le    DCD    1701585012
        0x00003ddc:    20747361    ast     DCD    544502625
        0x00003de0:    62206425    %d b    DCD    1646289957
        0x00003de4:    73657479    ytes    DCD    1936028793
        0x00003de8:    6f726620     fro    DCD    1869768224
        0x00003dec:    6874206d    m th    DCD    1752440941
        0x00003df0:    6c732065    e sl    DCD    1819484261
        0x00003df4:    2e657661    ave.    DCD    778401377
        0x00003df8:    00000000    ....    DCD    0
        0x00003dfc:    10000004    ....    DCD    268435460
        0x00003e00:    100000e0    ....    DCD    268435680
        0x00003e04:    10000000    ....    DCD    268435456
        0x00003e08:    7461440a    .Dat    DCD    1952531466
        0x00003e0c:    65562061    a Ve    DCD    1700143201
        0x00003e10:    69666972    rifi    DCD    1768319346
        0x00003e14:    69746163    cati    DCD    1769234787
        0x00003e18:    66206e6f    on f    DCD    1713401455
        0x00003e1c:    656c6961    aile    DCD    1701603681
        0x00003e20:    63412064    d Ac    DCD    1665212516
        0x00003e24:    3a6d7563    cum:    DCD    980252003
        0x00003e28:    20756c25    %lu     DCD    544566309
        0x00003e2c:    253d7872    rx=%    DCD    624785522
        0x00003e30:    00000a64    d...    DCD    2660
        0x00003e34:    7365540a    .Tes    DCD    1936020490
        0x00003e38:    6f442074    t Do    DCD    1866735732
        0x00003e3c:    2d20656e    ne -    DCD    757097838
        0x00003e40:    746f5420     Tot    DCD    1953453088
        0x00003e44:    52206c61    al R    DCD    1377856609
        0x00003e48:    69656365    ecei    DCD    1768252261
        0x00003e4c:    20646576    ved     DCD    543450486
        0x00003e50:    253d203d    = =%    DCD    624762941
        0x00003e54:    00000a64    d...    DCD    2660
    $t
    i.ndigits_in_hex
    ndigits_in_hex
        0x00003e58:    b530        0.      PUSH     {r4,r5,lr}
        0x00003e5a:    4602        .F      MOV      r2,r0
        0x00003e5c:    460b        .F      MOV      r3,r1
        0x00003e5e:    2400        .$      MOVS     r4,#0
        0x00003e60:    ea820104    ....    EOR      r1,r2,r4
        0x00003e64:    405c        \@      EORS     r4,r4,r3
        0x00003e66:    4321        !C      ORRS     r1,r1,r4
        0x00003e68:    d101        ..      BNE      0x3e6e ; ndigits_in_hex + 22
        0x00003e6a:    2101        .!      MOVS     r1,#1
        0x00003e6c:    e000        ..      B        0x3e70 ; ndigits_in_hex + 24
        0x00003e6e:    2100        .!      MOVS     r1,#0
        0x00003e70:    4608        .F      MOV      r0,r1
        0x00003e72:    e004        ..      B        0x3e7e ; ndigits_in_hex + 38
        0x00003e74:    0911        ..      LSRS     r1,r2,#4
        0x00003e76:    ea417203    A..r    ORR      r2,r1,r3,LSL #28
        0x00003e7a:    091b        ..      LSRS     r3,r3,#4
        0x00003e7c:    1c40        @.      ADDS     r0,r0,#1
        0x00003e7e:    2400        .$      MOVS     r4,#0
        0x00003e80:    ea820104    ....    EOR      r1,r2,r4
        0x00003e84:    405c        \@      EORS     r4,r4,r3
        0x00003e86:    4321        !C      ORRS     r1,r1,r4
        0x00003e88:    d1f4        ..      BNE      0x3e74 ; ndigits_in_hex + 28
        0x00003e8a:    bd30        0.      POP      {r4,r5,pc}
    i.ndigits_in_i64
    ndigits_in_i64
        0x00003e8c:    b570        p.      PUSH     {r4-r6,lr}
        0x00003e8e:    4604        .F      MOV      r4,r0
        0x00003e90:    460d        .F      MOV      r5,r1
        0x00003e92:    2100        .!      MOVS     r1,#0
        0x00003e94:    4608        .F      MOV      r0,r1
        0x00003e96:    1a61        a.      SUBS     r1,r4,r1
        0x00003e98:    eb750000    u...    SBCS     r0,r5,r0
        0x00003e9c:    da03        ..      BGE      0x3ea6 ; ndigits_in_i64 + 26
        0x00003e9e:    2200        ."      MOVS     r2,#0
        0x00003ea0:    4264        dB      RSBS     r4,r4,#0
        0x00003ea2:    eb620505    b...    SBC      r5,r2,r5
        0x00003ea6:    4620         F      MOV      r0,r4
        0x00003ea8:    4629        )F      MOV      r1,r5
        0x00003eaa:    f000f801    ....    BL       ndigits_in_u64 ; 0x3eb0
        0x00003eae:    bd70        p.      POP      {r4-r6,pc}
    i.ndigits_in_u64
    ndigits_in_u64
        0x00003eb0:    b570        p.      PUSH     {r4-r6,lr}
        0x00003eb2:    4604        .F      MOV      r4,r0
        0x00003eb4:    460d        .F      MOV      r5,r1
        0x00003eb6:    2100        .!      MOVS     r1,#0
        0x00003eb8:    ea840001    ....    EOR      r0,r4,r1
        0x00003ebc:    4069        i@      EORS     r1,r1,r5
        0x00003ebe:    4308        .C      ORRS     r0,r0,r1
        0x00003ec0:    d101        ..      BNE      0x3ec6 ; ndigits_in_u64 + 22
        0x00003ec2:    2001        .       MOVS     r0,#1
        0x00003ec4:    e000        ..      B        0x3ec8 ; ndigits_in_u64 + 24
        0x00003ec6:    2000        .       MOVS     r0,#0
        0x00003ec8:    4606        .F      MOV      r6,r0
        0x00003eca:    e006        ..      B        0x3eda ; ndigits_in_u64 + 42
        0x00003ecc:    4620         F      MOV      r0,r4
        0x00003ece:    4629        )F      MOV      r1,r5
        0x00003ed0:    f7fff9cd    ....    BL       divu64_10 ; 0x326e
        0x00003ed4:    4604        .F      MOV      r4,r0
        0x00003ed6:    460d        .F      MOV      r5,r1
        0x00003ed8:    1c76        v.      ADDS     r6,r6,#1
        0x00003eda:    2100        .!      MOVS     r1,#0
        0x00003edc:    ea840001    ....    EOR      r0,r4,r1
        0x00003ee0:    4069        i@      EORS     r1,r1,r5
        0x00003ee2:    4308        .C      ORRS     r0,r0,r1
        0x00003ee4:    d1f2        ..      BNE      0x3ecc ; ndigits_in_u64 + 28
        0x00003ee6:    4630        0F      MOV      r0,r6
        0x00003ee8:    bd70        p.      POP      {r4-r6,pc}
    i.padbuffer
    padbuffer
        0x00003eea:    b530        0.      PUSH     {r4,r5,lr}
        0x00003eec:    4603        .F      MOV      r3,r0
        0x00003eee:    2000        .       MOVS     r0,#0
        0x00003ef0:    2a00        .*      CMP      r2,#0
        0x00003ef2:    dc00        ..      BGT      0x3ef6 ; padbuffer + 12
        0x00003ef4:    bd30        0.      POP      {r4,r5,pc}
        0x00003ef6:    e003        ..      B        0x3f00 ; padbuffer + 22
        0x00003ef8:    b10b        ..      CBZ      r3,0x3efe ; padbuffer + 20
        0x00003efa:    f8031b01    ....    STRB     r1,[r3],#1
        0x00003efe:    1c40        @.      ADDS     r0,r0,#1
        0x00003f00:    1e14        ..      SUBS     r4,r2,#0
        0x00003f02:    f1a20201    ....    SUB      r2,r2,#1
        0x00003f06:    d1f7        ..      BNE      0x3ef8 ; padbuffer + 14
        0x00003f08:    bf00        ..      NOP      
        0x00003f0a:    e7f3        ..      B        0x3ef4 ; padbuffer + 10
    i.setBuckZX
    setBuckZX
        0x00003f0c:    b478        x.      PUSH     {r3-r6}
        0x00003f0e:    f3ef8310    ....    MRS      r3,PRIMASK
        0x00003f12:    9300        ..      STR      r3,[sp,#0]
        0x00003f14:    4b19        .K      LDR      r3,[pc,#100] ; [0x3f7c] = 0x40020000
        0x00003f16:    b672        r.      CPSID    i
        0x00003f18:    f8d3c068    ..h.    LDR      r12,[r3,#0x68]
        0x00003f1c:    f3cc0483    ....    UBFX     r4,r12,#2,#4
        0x00003f20:    f8d3c068    ..h.    LDR      r12,[r3,#0x68]
        0x00003f24:    f0120f02    ....    TST      r2,#2
        0x00003f28:    f3cc3543    ..C5    UBFX     r5,r12,#13,#4
        0x00003f2c:    f8dfc050    ..P.    LDR      r12,[pc,#80] ; [0x3f80] = 0x100000c4
        0x00003f30:    bf14        ..      ITE      NE
        0x00003f32:    e9dc0104    ....    LDRDNE   r0,r1,[r12,#0x10]
        0x00003f36:    f0120f01    ....    TSTEQ    r2,#1
        0x00003f3a:    d00d        ..      BEQ      0x3f58 ; setBuckZX + 76
        0x00003f3c:    f0120f10    ....    TST      r2,#0x10
        0x00003f40:    d003        ..      BEQ      0x3f4a ; setBuckZX + 62
        0x00003f42:    6e9e        .n      LDR      r6,[r3,#0x68]
        0x00003f44:    f3600685    `...    BFI      r6,r0,#2,#4
        0x00003f48:    669e        .f      STR      r6,[r3,#0x68]
        0x00003f4a:    f0120f20    .. .    TST      r2,#0x20
        0x00003f4e:    d003        ..      BEQ      0x3f58 ; setBuckZX + 76
        0x00003f50:    6e98        .n      LDR      r0,[r3,#0x68]
        0x00003f52:    f3613050    a.P0    BFI      r0,r1,#13,#4
        0x00003f56:    6698        .f      STR      r0,[r3,#0x68]
        0x00003f58:    f0120f04    ....    TST      r2,#4
        0x00003f5c:    d009        ..      BEQ      0x3f72 ; setBuckZX + 102
        0x00003f5e:    f0120f10    ....    TST      r2,#0x10
        0x00003f62:    bf18        ..      IT       NE
        0x00003f64:    f8cc4010    ...@    STRNE    r4,[r12,#0x10]
        0x00003f68:    f0120f20    .. .    TST      r2,#0x20
        0x00003f6c:    bf18        ..      IT       NE
        0x00003f6e:    f8cc5014    ...P    STRNE    r5,[r12,#0x14]
        0x00003f72:    9800        ..      LDR      r0,[sp,#0]
        0x00003f74:    f3808810    ....    MSR      PRIMASK,r0
        0x00003f78:    bc78        x.      POP      {r3-r6}
        0x00003f7a:    4770        pG      BX       lr
    $d
        0x00003f7c:    40020000    ...@    DCD    1073872896
        0x00003f80:    100000c4    ....    DCD    268435652
    $t
    i.simple_strlen
    simple_strlen
        0x00003f84:    4601        .F      MOV      r1,r0
        0x00003f86:    2000        .       MOVS     r0,#0
        0x00003f88:    b901        ..      CBNZ     r1,0x3f8c ; simple_strlen + 8
        0x00003f8a:    4770        pG      BX       lr
        0x00003f8c:    e000        ..      B        0x3f90 ; simple_strlen + 12
        0x00003f8e:    1c40        @.      ADDS     r0,r0,#1
        0x00003f90:    f8113b01    ...;    LDRB     r3,[r1],#1
        0x00003f94:    2b00        .+      CMP      r3,#0
        0x00003f96:    d1fa        ..      BNE      0x3f8e ; simple_strlen + 10
        0x00003f98:    bf00        ..      NOP      
        0x00003f9a:    e7f6        ..      B        0x3f8a ; simple_strlen + 6
    i.uint64_to_hexstr
    uint64_to_hexstr
        0x00003f9c:    e92d41f0    -..A    PUSH     {r4-r8,lr}
        0x00003fa0:    b085        ..      SUB      sp,sp,#0x14
        0x00003fa2:    4604        .F      MOV      r4,r0
        0x00003fa4:    460d        .F      MOV      r5,r1
        0x00003fa6:    461e        .F      MOV      r6,r3
        0x00003fa8:    2100        .!      MOVS     r1,#0
        0x00003faa:    468c        .F      MOV      r12,r1
        0x00003fac:    ea84070c    ....    EOR      r7,r4,r12
        0x00003fb0:    ea850c0c    ....    EOR      r12,r5,r12
        0x00003fb4:    ea57070c    W...    ORRS     r7,r7,r12
        0x00003fb8:    d105        ..      BNE      0x3fc6 ; uint64_to_hexstr + 42
        0x00003fba:    f04f0830    O.0.    MOV      r8,#0x30
        0x00003fbe:    460f        .F      MOV      r7,r1
        0x00003fc0:    1c49        I.      ADDS     r1,r1,#1
        0x00003fc2:    f80d8007    ....    STRB     r8,[sp,r7]
        0x00003fc6:    e016        ..      B        0x3ff6 ; uint64_to_hexstr + 90
        0x00003fc8:    270f        .'      MOVS     r7,#0xf
        0x00003fca:    4027        '@      ANDS     r7,r7,r4
        0x00003fcc:    b2fb        ..      UXTB     r3,r7
        0x00003fce:    2b09        .+      CMP      r3,#9
        0x00003fd0:    dd05        ..      BLE      0x3fde ; uint64_to_hexstr + 66
        0x00003fd2:    b10e        ..      CBZ      r6,0x3fd8 ; uint64_to_hexstr + 60
        0x00003fd4:    2727        ''      MOVS     r7,#0x27
        0x00003fd6:    e000        ..      B        0x3fda ; uint64_to_hexstr + 62
        0x00003fd8:    2707        .'      MOVS     r7,#7
        0x00003fda:    441f        .D      ADD      r7,r7,r3
        0x00003fdc:    b2fb        ..      UXTB     r3,r7
        0x00003fde:    f1030730    ..0.    ADD      r7,r3,#0x30
        0x00003fe2:    f00708ff    ....    AND      r8,r7,#0xff
        0x00003fe6:    460f        .F      MOV      r7,r1
        0x00003fe8:    1c49        I.      ADDS     r1,r1,#1
        0x00003fea:    f80d8007    ....    STRB     r8,[sp,r7]
        0x00003fee:    0927        '.      LSRS     r7,r4,#4
        0x00003ff0:    ea477405    G..t    ORR      r4,r7,r5,LSL #28
        0x00003ff4:    092d        -.      LSRS     r5,r5,#4
        0x00003ff6:    f04f0c00    O...    MOV      r12,#0
        0x00003ffa:    ea84070c    ....    EOR      r7,r4,r12
        0x00003ffe:    ea850c0c    ....    EOR      r12,r5,r12
        0x00004002:    ea57070c    W...    ORRS     r7,r7,r12
        0x00004006:    d1df        ..      BNE      0x3fc8 ; uint64_to_hexstr + 44
        0x00004008:    4608        .F      MOV      r0,r1
        0x0000400a:    b14a        J.      CBZ      r2,0x4020 ; uint64_to_hexstr + 132
        0x0000400c:    e003        ..      B        0x4016 ; uint64_to_hexstr + 122
        0x0000400e:    f81d7001    ...p    LDRB     r7,[sp,r1]
        0x00004012:    f8027b01    ...{    STRB     r7,[r2],#1
        0x00004016:    1e0f        ..      SUBS     r7,r1,#0
        0x00004018:    f1a10101    ....    SUB      r1,r1,#1
        0x0000401c:    d1f7        ..      BNE      0x400e ; uint64_to_hexstr + 114
        0x0000401e:    7017        .p      STRB     r7,[r2,#0]
        0x00004020:    b005        ..      ADD      sp,sp,#0x14
        0x00004022:    e8bd81f0    ....    POP      {r4-r8,pc}
    i.uint64_to_str
    uint64_to_str
        0x00004026:    e92d4ff0    -..O    PUSH     {r4-r11,lr}
        0x0000402a:    b087        ..      SUB      sp,sp,#0x1c
        0x0000402c:    4607        .F      MOV      r7,r0
        0x0000402e:    4688        .F      MOV      r8,r1
        0x00004030:    4616        .F      MOV      r6,r2
        0x00004032:    f04f0900    O...    MOV      r9,#0
        0x00004036:    46cb        .F      MOV      r11,r9
        0x00004038:    bf00        ..      NOP      
        0x0000403a:    4638        8F      MOV      r0,r7
        0x0000403c:    4641        AF      MOV      r1,r8
        0x0000403e:    f7fff916    ....    BL       divu64_10 ; 0x326e
        0x00004042:    4604        .F      MOV      r4,r0
        0x00004044:    460d        .F      MOV      r5,r1
        0x00004046:    210a        .!      MOVS     r1,#0xa
        0x00004048:    fba40101    ....    UMULL    r0,r1,r4,r1
        0x0000404c:    ebb70a00    ....    SUBS     r10,r7,r0
        0x00004050:    f10a0030    ..0.    ADD      r0,r10,#0x30
        0x00004054:    b2c2        ..      UXTB     r2,r0
        0x00004056:    4648        HF      MOV      r0,r9
        0x00004058:    f1090901    ....    ADD      r9,r9,#1
        0x0000405c:    f80d2000    ...     STRB     r2,[sp,r0]
        0x00004060:    4627        'F      MOV      r7,r4
        0x00004062:    46a8        .F      MOV      r8,r5
        0x00004064:    f04f0200    O...    MOV      r2,#0
        0x00004068:    ea870002    ....    EOR      r0,r7,r2
        0x0000406c:    ea880102    ....    EOR      r1,r8,r2
        0x00004070:    4308        .C      ORRS     r0,r0,r1
        0x00004072:    d1e2        ..      BNE      0x403a ; uint64_to_str + 20
        0x00004074:    46cb        .F      MOV      r11,r9
        0x00004076:    b156        V.      CBZ      r6,0x408e ; uint64_to_str + 104
        0x00004078:    e003        ..      B        0x4082 ; uint64_to_str + 92
        0x0000407a:    f81d0009    ....    LDRB     r0,[sp,r9]
        0x0000407e:    f8060b01    ....    STRB     r0,[r6],#1
        0x00004082:    f1b90000    ....    SUBS     r0,r9,#0
        0x00004086:    f1a90901    ....    SUB      r9,r9,#1
        0x0000408a:    d1f6        ..      BNE      0x407a ; uint64_to_str + 84
        0x0000408c:    7030        0p      STRB     r0,[r6,#0]
        0x0000408e:    4658        XF      MOV      r0,r11
        0x00004090:    b007        ..      ADD      sp,sp,#0x1c
        0x00004092:    e8bd8ff0    ....    POP      {r4-r11,pc}
        0x00004096:    0000        ..      MOVS     r0,r0
    i.update_progress
    update_progress
        0x00004098:    b510        ..      PUSH     {r4,lr}
        0x0000409a:    4604        .F      MOV      r4,r0
        0x0000409c:    4805        .H      LDR      r0,[pc,#20] ; [0x40b4] = 0x10000020
        0x0000409e:    6800        .h      LDR      r0,[r0,#0]
        0x000040a0:    1a20         .      SUBS     r0,r4,r0
        0x000040a2:    f5b07f7a    ..z.    CMP      r0,#0x3e8
        0x000040a6:    d904        ..      BLS      0x40b2 ; update_progress + 26
        0x000040a8:    a003        ..      ADR      r0,{pc}+0x10 ; 0x40b8
        0x000040aa:    f7fefeab    ....    BL       am_util_stdio_printf ; 0x2e04
        0x000040ae:    4801        .H      LDR      r0,[pc,#4] ; [0x40b4] = 0x10000020
        0x000040b0:    6004        .`      STR      r4,[r0,#0]
        0x000040b2:    bd10        ..      POP      {r4,pc}
    $d
        0x000040b4:    10000020     ...    DCD    268435488
        0x000040b8:    0000002e    ....    DCD    46
    $t
    i.validate_rx_buf
    validate_rx_buf
        0x000040bc:    b570        p.      PUSH     {r4-r6,lr}
        0x000040be:    4605        .F      MOV      r5,r0
        0x000040c0:    2400        .$      MOVS     r4,#0
        0x000040c2:    e00d        ..      B        0x40e0 ; validate_rx_buf + 36
        0x000040c4:    480d        .H      LDR      r0,[pc,#52] ; [0x40fc] = 0x100000e0
        0x000040c6:    5d01        .]      LDRB     r1,[r0,r4]
        0x000040c8:    480d        .H      LDR      r0,[pc,#52] ; [0x4100] = 0x10000000
        0x000040ca:    6800        .h      LDR      r0,[r0,#0]
        0x000040cc:    4420         D      ADD      r0,r0,r4
        0x000040ce:    b2c0        ..      UXTB     r0,r0
        0x000040d0:    4281        .B      CMP      r1,r0
        0x000040d2:    d004        ..      BEQ      0x40de ; validate_rx_buf + 34
        0x000040d4:    4621        !F      MOV      r1,r4
        0x000040d6:    a00b        ..      ADR      r0,{pc}+0x2e ; 0x4104
        0x000040d8:    f7fefe94    ....    BL       am_util_stdio_printf ; 0x2e04
        0x000040dc:    e002        ..      B        0x40e4 ; validate_rx_buf + 40
        0x000040de:    1c64        d.      ADDS     r4,r4,#1
        0x000040e0:    42ac        .B      CMP      r4,r5
        0x000040e2:    d3ef        ..      BCC      0x40c4 ; validate_rx_buf + 8
        0x000040e4:    bf00        ..      NOP      
        0x000040e6:    4806        .H      LDR      r0,[pc,#24] ; [0x4100] = 0x10000000
        0x000040e8:    6800        .h      LDR      r0,[r0,#0]
        0x000040ea:    4428        (D      ADD      r0,r0,r5
        0x000040ec:    4904        .I      LDR      r1,[pc,#16] ; [0x4100] = 0x10000000
        0x000040ee:    6008        .`      STR      r0,[r1,#0]
        0x000040f0:    42ac        .B      CMP      r4,r5
        0x000040f2:    d101        ..      BNE      0x40f8 ; validate_rx_buf + 60
        0x000040f4:    2001        .       MOVS     r0,#1
        0x000040f6:    bd70        p.      POP      {r4-r6,pc}
        0x000040f8:    2000        .       MOVS     r0,#0
        0x000040fa:    e7fc        ..      B        0x40f6 ; validate_rx_buf + 58
    $d
        0x000040fc:    100000e0    ....    DCD    268435680
        0x00004100:    10000000    ....    DCD    268435456
        0x00004104:    6c696146    Fail    DCD    1818845510
        0x00004108:    74206465    ed t    DCD    1948279909
        0x0000410c:    6f63206f    o co    DCD    1868767343
        0x00004110:    7261706d    mpar    DCD    1918988397
        0x00004114:    75622065    e bu    DCD    1969365093
        0x00004118:    72656666    ffer    DCD    1919247974
        0x0000411c:    74612073    s at    DCD    1952522355
        0x00004120:    646e6920     ind    DCD    1684957472
        0x00004124:    25207865    ex %    DCD    622884965
        0x00004128:    000a2064    d ..    DCD    663652
    $t
    x$fpl$d2f
    $v0
    __aeabi_d2f
    _d2f
        0x0000412c:    f0214200    !..B    BIC      r2,r1,#0x80000000
        0x00004130:    f1a25260    ..`R    SUB      r2,r2,#0x38000000
        0x00004134:    f5b21f80    ....    CMP      r2,#0x100000
        0x00004138:    f0014300    ...C    AND      r3,r1,#0x80000000
        0x0000413c:    bf28        (.      IT       CS
        0x0000413e:    f1d26c7f    ...l    RSBSCS   r12,r2,#0xff00000
        0x00004142:    d90b        ..      BLS      0x415c ; __aeabi_d2f + 48
        0x00004144:    ea5f1c00    _...    LSLS     r12,r0,#4
        0x00004148:    ea4302c2    C...    ORR      r2,r3,r2,LSL #3
        0x0000414c:    eb427050    B.Pp    ADC      r0,r2,r0,LSR #29
        0x00004150:    bf18        ..      IT       NE
        0x00004152:    4770        pG      BXNE     lr
        0x00004154:    bf28        (.      IT       CS
        0x00004156:    f0200001     ...    BICCS    r0,r0,#1
        0x0000415a:    4770        pG      BX       lr
        0x0000415c:    f5b21f80    ....    CMP      r2,#0x100000
        0x00004160:    bfbc        ..      ITT      LT
        0x00004162:    4618        .F      MOVLT    r0,r3
        0x00004164:    4770        pG      BXLT     lr
        0x00004166:    ea4f0c41    O.A.    LSL      r12,r1,#1
        0x0000416a:    f51c1f00    ....    CMN      r12,#0x200000
        0x0000416e:    d202        ..      BCS      0x4176 ; __aeabi_d2f + 74
        0x00004170:    4608        .F      MOV      r0,r1
        0x00004172:    f000b85f    .._.    B.W      __fpl_fretinf ; 0x4234
        0x00004176:    b570        p.      PUSH     {r4-r6,lr}
        0x00004178:    f000f809    ....    BL       __fpl_dnaninf ; 0x418e
    $d
        0x0000417c:    89000000    ....    DCD    2298478592
    $t
        0x00004180:    f7ffbff6    ....    B.W      0x4170 ; __aeabi_d2f + 68
        0x00004184:    f04f4000    O..@    MOV      r0,#0x80000000
        0x00004188:    f5a00080    ....    SUB      r0,r0,#0x400000
        0x0000418c:    4770        pG      BX       lr
    x$fpl$dnaninf
    $v0
    __fpl_dnaninf
        0x0000418e:    f10e0e02    ....    ADD      lr,lr,#2
        0x00004192:    f02e0e03    ....    BIC      lr,lr,#3
        0x00004196:    f85e6b04    ^..k    LDR      r6,[lr],#4
        0x0000419a:    4236        6B      TST      r6,r6
        0x0000419c:    d405        ..      BMI      0x41aa ; __fpl_dnaninf + 28
        0x0000419e:    2a01        .*      CMP      r2,#1
        0x000041a0:    eb430503    C...    ADC      r5,r3,r3
        0x000041a4:    f5151f00    ....    CMN      r5,#0x200000
        0x000041a8:    d812        ..      BHI      0x41d0 ; __fpl_dnaninf + 66
        0x000041aa:    2801        .(      CMP      r0,#1
        0x000041ac:    eb410c01    A...    ADC      r12,r1,r1
        0x000041b0:    f51c1f00    ....    CMN      r12,#0x200000
        0x000041b4:    d80c        ..      BHI      0x41d0 ; __fpl_dnaninf + 66
        0x000041b6:    d10e        ..      BNE      0x41d6 ; __fpl_dnaninf + 72
        0x000041b8:    ea4f7cd1    O..|    LSR      r12,r1,#31
        0x000041bc:    f5151f00    ....    CMN      r5,#0x200000
        0x000041c0:    eb0c0c4c    ..L.    ADD      r12,r12,r12,LSL #1
        0x000041c4:    f10c0c02    ....    ADD      r12,r12,#2
        0x000041c8:    bf08        ..      IT       EQ
        0x000041ca:    eb4c7cd3    L..|    ADCEQ    r12,r12,r3,LSR #31
        0x000041ce:    e004        ..      B        0x41da ; __fpl_dnaninf + 76
        0x000041d0:    f04f0c08    O...    MOV      r12,#8
        0x000041d4:    e001        ..      B        0x41da ; __fpl_dnaninf + 76
        0x000041d6:    ea4f7cd3    O..|    LSR      r12,r3,#31
        0x000041da:    eb0c054c    ..L.    ADD      r5,r12,r12,LSL #1
        0x000041de:    fa26f605    &...    LSR      r6,r6,r5
        0x000041e2:    f0060607    ....    AND      r6,r6,#7
        0x000041e6:    f1b60c04    ....    SUBS     r12,r6,#4
        0x000041ea:    d206        ..      BCS      0x41fa ; __fpl_dnaninf + 108
        0x000041ec:    eb0e0c86    ....    ADD      r12,lr,r6,LSL #2
        0x000041f0:    e8bd4070    ..p@    POP      {r4-r6,lr}
        0x000041f4:    f04c0c01    L...    ORR      r12,r12,#1
        0x000041f8:    4760        `G      BX       r12
        0x000041fa:    e8dff00c    ....    TBB      [pc,r12]
    $d
        0x000041fe:    0b09        ..      DCW    2825
        0x00004200:    0202        ..      DCW    514
    $t
        0x00004202:    f04f4100    O..A    MOV      r1,#0x80000000
        0x00004206:    f04f0000    O...    MOV      r0,#0
        0x0000420a:    f5a12100    ...!    SUB      r1,r1,#0x80000
        0x0000420e:    bd70        p.      POP      {r4-r6,pc}
        0x00004210:    4619        .F      MOV      r1,r3
        0x00004212:    4610        .F      MOV      r0,r2
        0x00004214:    2801        .(      CMP      r0,#1
        0x00004216:    eb510401    Q...    ADCS     r4,r1,r1
        0x0000421a:    bf18        ..      IT       NE
        0x0000421c:    f5d41400    ....    RSBSNE   r4,r4,#0x200000
        0x00004220:    bf84        ..      ITT      HI
        0x00004222:    2000        .       MOVHI    r0,#0
        0x00004224:    f0014100    ...A    ANDHI    r1,r1,#0x80000000
        0x00004228:    bd70        p.      POP      {r4-r6,pc}
    x$fpl$fpinit
    $v0
    _fp_init
        0x0000422a:    f04f7040    O.@p    MOV      r0,#0x3000000
        0x0000422e:    eee10a10    ....    VMSR     FPSCR,r0
    __fplib_config_fpu_vfp
    __fplib_config_pureend_doubles
        0x00004232:    4770        pG      BX       lr
    x$fpl$fretinf
    $v0
    __fpl_fretinf
        0x00004234:    21ff        .!      MOVS     r1,#0xff
        0x00004236:    ea4150d0    A..P    ORR      r0,r1,r0,LSR #23
        0x0000423a:    05c0        ..      LSLS     r0,r0,#23
        0x0000423c:    4770        pG      BX       lr
    x$fpl$usenofp
    __I$use$fp
        0x0000423e:    0000        ..      MOVS     r0,r0
    $d.realdata
    .constdata
    apollo2_iomce0
        0x00004240:    0000000b    ....    DCD    11
        0x00004244:    00000008    ....    DCD    8
        0x00004248:    0000000c    ....    DCD    12
        0x0000424c:    00000008    ....    DCD    8
        0x00004250:    00000003    ....    DCD    3
        0x00004254:    00000028    (...    DCD    40
        0x00004258:    0000001a    ....    DCD    26
        0x0000425c:    00000038    8...    DCD    56
        0x00004260:    0000001d    ....    DCD    29
        0x00004264:    00000030    0...    DCD    48
        0x00004268:    00000018    ....    DCD    24
        0x0000426c:    00000020     ...    DCD    32
    .constdata
    am_hal_cachectrl_defaults
        0x00004270:    50000001    ...P    DCD    1342177281
        0x00004274:    00010300    ....    DCD    66304
        0x00004278:    00010101    ....    DCD    65793
    .constdata
    i2c_bb_errmap
        0x0000427c:    01060600    ....    DCD    17171968
        0x00004280:    01          .       DCB    1
    g_IOMPads
        0x00004281:    001d06      ...     DCB    0,29,6
        0x00004284:    01062200    ."..    DCD    17179136
        0x00004288:    25010412    ...%    DCD    620823570
        0x0000428c:    06290205    ..).    DCD    103350789
        0x00004290:    03041103    ....    DCD    50598147
        0x00004294:    0a04042d    -...    DCD    168035373
        0x00004298:    062e0406    ....    DCD    103678982
        0x0000429c:    05040905    ....    DCD    84150533
        0x000042a0:    2306062f    /..#    DCD    587597359
        0x000042a4:    06260704    ..&.    DCD    103155460
    g_I2CPads
        0x000042a8:    01000500    ....    DCD    16778496
        0x000042ac:    00020008    ....    DCD    131080
        0x000042b0:    042a0307    ..*.    DCD    69862151
        0x000042b4:    05042704    .'..    DCD    84158212
        0x000042b8:    1b020430    0...    DCD    453116976
        0x000042bc:    00000004    ....    DCD    4
    Region$$Table$$Base
        0x000042c0:    000042e0    .B..    DCD    17120
        0x000042c4:    10000000    ....    DCD    268435456
        0x000042c8:    000000e0    ....    DCD    224
        0x000042cc:    00000124    $...    DCD    292
        0x000042d0:    000043c0    .C..    DCD    17344
        0x000042d4:    100000e0    ....    DCD    268435680
        0x000042d8:    00001828    (...    DCD    6184
        0x000042dc:    00000140    @...    DCD    320
    Region$$Table$$Limit

** Section #2 'SRAM' (SHT_PROGBITS) [SHF_ALLOC + SHF_WRITE]
    Size   : 224 bytes (alignment 4)
    Address: 0x10000000

    0x10000000:   00 00 00 00 00 00 00 00 01 00 00 00 00 09 3d 00    ..............=.
    0x10000010:   00 00 04 3c 00 00 00 00 40 42 0f 00 00 00 0c 78    ...<....@B.....x
    0x10000020:   00 00 00 00 00 00 00 00 00 00 00 00 00 00 00 00    ................
    0x10000030:   06 00 00 00 0a 00 00 00 09 00 00 00 0a 00 00 00    ................
    0x10000040:   19 00 00 00 2a 00 00 00 2b 00 00 00 2a 00 00 00    ....*...+...*...
    0x10000050:   28 00 00 00 2a 00 00 00 31 00 00 00 2a 00 00 00    (...*...1...*...
    0x10000060:   4d 00 00 08 51 00 00 08 55 00 00 08 59 00 00 08    M...Q...U...Y...
    0x10000070:   6d 00 00 08 71 00 00 08 7d 00 00 08 81 00 00 08    m...q...}.......
    0x10000080:   89 00 00 08 91 00 00 08 99 00 00 08 75 00 00 08    ............u...
    0x10000090:   79 00 00 08 9d 00 00 08 5d 00 00 08 61 00 00 08    y.......]...a...
    0x100000a0:   65 00 00 08 69 00 00 08 85 00 00 08 8d 00 00 08    e...i...........
    0x100000b0:   1d 1c 00 00 00 00 00 00 00 00 00 00 00 00 00 00    ................
    0x100000c0:   00 00 00 00 00 00 00 00 00 00 00 00 00 00 00 00    ................
    0x100000d0:   00 00 00 00 00 00 00 00 00 00 00 00 00 00 00 00    ................


** Section #3 'SRAM' (SHT_NOBITS) [SHF_ALLOC + SHF_WRITE]
    Size   : 6184 bytes (alignment 8)
    Address: 0x100000e0


** Section #4 '.debug_abbrev' (SHT_PROGBITS)
    Size   : 1476 bytes


** Section #5 '.debug_frame' (SHT_PROGBITS)
    Size   : 4512 bytes


** Section #6 '.debug_info' (SHT_PROGBITS)
    Size   : 14580 bytes


** Section #7 '.debug_line' (SHT_PROGBITS)
    Size   : 5680 bytes


** Section #8 '.debug_loc' (SHT_PROGBITS)
    Size   : 2644 bytes


** Section #9 '.debug_macinfo' (SHT_PROGBITS)
    Size   : 5820 bytes


** Section #10 '.debug_pubnames' (SHT_PROGBITS)
    Size   : 692 bytes


** Section #11 '.symtab' (SHT_SYMTAB)
    Size   : 10384 bytes (alignment 4)
    String table #12 '.strtab'
    Last local symbol no. 440

    Symbol table .symtab (648 symbols, 440 local)

      #  Symbol Name                Value      Bind  Sec  Type  Vis  Size
    ========================================================================

      1  $d                         0x00000000   Lc    1   --   De 
      2  $t                         0x000000c0   Lc    1   --   De 
      3  $d                         0x000000e4   Lc    1   --   De 
      4  $t                         0x000000e8   Lc    1   --   De 
      5  $d                         0x0000011c   Lc    1   --   De 
      6  $t                         0x00000124   Lc    1   --   De 
      7  $d                         0x000001c0   Lc    1   --   De 
      8  $t                         0x000001c4   Lc    1   --   De 
      9  $d                         0x000001ce   Lc    1   --   De 
     10  $t                         0x000001dc   Lc    1   --   De 
     11  $d                         0x00000244   Lc    1   --   De 
     12  $t                         0x00000248   Lc    1   --   De 
     13  $d                         0x00000250   Lc    1   --   De 
     14  $t                         0x00000254   Lc    1   --   De 
     15  $d                         0x000002b4   Lc    1   --   De 
     16  $t                         0x000002c8   Lc    1   --   De 
     17  $d                         0x00000398   Lc    1   --   De 
     18  $t                         0x000003a4   Lc    1   --   De 
     19  $d                         0x000003b6   Lc    1   --   De 
     20  $t                         0x000003bc   Lc    1   --   De 
     21  $d                         0x00000762   Lc    1   --   De 
     22  $t                         0x00000768   Lc    1   --   De 
     23  $d                         0x00000878   Lc    1   --   De 
     24  $t                         0x0000087c   Lc    1   --   De 
     25  $d                         0x000008ac   Lc    1   --   De 
     26  $t                         0x000008b4   Lc    1   --   De 
     27  $d                         0x000008d4   Lc    1   --   De 
     28  $t                         0x00000920   Lc    1   --   De 
     29  $d                         0x00000944   Lc    1   --   De 
     30  $t                         0x00000948   Lc    1   --   De 
     31  $d                         0x000009b8   Lc    1   --   De 
     32  $t                         0x000009c4   Lc    1   --   De 
     33  $d                         0x000009ee   Lc    1   --   De 
     34  $t                         0x000009f4   Lc    1   --   De 
     35  $d                         0x000009fe   Lc    1   --   De 
     36  $t                         0x00000a04   Lc    1   --   De 
     37  $d                         0x00000a38   Lc    1   --   De 
     38  $t                         0x00000a3c   Lc    1   --   De 
     39  $d                         0x00000a5a   Lc    1   --   De 
     40  $t                         0x00000a60   Lc    1   --   De 
     41  $d                         0x00000a78   Lc    1   --   De 
     42  $t                         0x00000a7c   Lc    1   --   De 
     43  $d                         0x00000a9a   Lc    1   --   De 
     44  $t                         0x00000ad0   Lc    1   --   De 
     45  $d                         0x00000b24   Lc    1   --   De 
     46  $t                         0x00000b28   Lc    1   --   De 
     47  $d                         0x00000b6a   Lc    1   --   De 
     48  $t                         0x00000b70   Lc    1   --   De 
     49  $d                         0x00000d46   Lc    1   --   De 
     50  $t                         0x00000d4c   Lc    1   --   De 
     51  $d                         0x00000e12   Lc    1   --   De 
     52  $t                         0x00000e18   Lc    1   --   De 
     53  $d                         0x00000e5e   Lc    1   --   De 
     54  $t                         0x00000e64   Lc    1   --   De 
     55  $d                         0x000010d2   Lc    1   --   De 
     56  $t                         0x000010f0   Lc    1   --   De 
     57  $d                         0x00001114   Lc    1   --   De 
     58  $t                         0x00001118   Lc    1   --   De 
     59  $d                         0x000011a8   Lc    1   --   De 
     60  $t                         0x000011f0   Lc    1   --   De 
     61  $d                         0x00001294   Lc    1   --   De 
     62  $t                         0x000012d8   Lc    1   --   De 
     63  $d                         0x0000142c   Lc    1   --   De 
     64  $t                         0x00001444   Lc    1   --   De 
     65  $d                         0x0000156e   Lc    1   --   De 
     66  $t                         0x00001584   Lc    1   --   De 
     67  $d                         0x00001666   Lc    1   --   De 
     68  $t                         0x00001678   Lc    1   --   De 
     69  $d                         0x000017bc   Lc    1   --   De 
     70  $t                         0x000017d0   Lc    1   --   De 
     71  $d                         0x000018f8   Lc    1   --   De 
     72  $t                         0x0000190c   Lc    1   --   De 
     73  $d                         0x00001a1e   Lc    1   --   De 
     74  $t                         0x00001a30   Lc    1   --   De 
     75  $d                         0x00001ba4   Lc    1   --   De 
     76  $t                         0x00001bb8   Lc    1   --   De 
     77  $d                         0x00001bd8   Lc    1   --   De 
     78  $t                         0x00001c1c   Lc    1   --   De 
     79  $d                         0x00001c6a   Lc    1   --   De 
     80  $t                         0x00001c74   Lc    1   --   De 
     81  $d                         0x00001d5c   Lc    1   --   De 
     82  $t                         0x00001d6c   Lc    1   --   De 
     83  $d                         0x00001e70   Lc    1   --   De 
     84  $t                         0x00001e90   Lc    1   --   De 
     85  $d                         0x00001ff4   Lc    1   --   De 
     86  $t                         0x00002014   Lc    1   --   De 
     87  $d                         0x000020ee   Lc    1   --   De 
     88  $t                         0x00002100   Lc    1   --   De 
     89  $d                         0x00002208   Lc    1   --   De 
     90  $t                         0x0000221c   Lc    1   --   De 
     91  $d                         0x00002364   Lc    1   --   De 
     92  $t                         0x0000237c   Lc    1   --   De 
     93  $d                         0x00002760   Lc    1   --   De 
     94  $t                         0x00002820   Lc    1   --   De 
     95  $d                         0x00002858   Lc    1   --   De 
     96  $t                         0x00002878   Lc    1   --   De 
     97  $d                         0x000028ec   Lc    1   --   De 
     98  $t                         0x000028f4   Lc    1   --   De 
     99  $d                         0x00002922   Lc    1   --   De 
    100  $t                         0x00002928   Lc    1   --   De 
    101  $d                         0x00002964   Lc    1   --   De 
    102  $t                         0x00002968   Lc    1   --   De 
    103  $d                         0x0000297c   Lc    1   --   De 
    104  $t                         0x00002980   Lc    1   --   De 
    105  $d                         0x00002af4   Lc    1   --   De 
    106  $t                         0x00002b00   Lc    1   --   De 
    107  $d                         0x00002b72   Lc    1   --   De 
    108  $t                         0x00002bc0   Lc    1   --   De 
    109  $d                         0x00002d5e   Lc    1   --   De 
    110  $t                         0x00002d70   Lc    1   --   De 
    111  $d                         0x00002de4   Lc    1   --   De 
    112  $t                         0x00002df8   Lc    1   --   De 
    113  $d                         0x00002e00   Lc    1   --   De 
    114  $t                         0x00002e04   Lc    1   --   De 
    115  $d                         0x00002e2c   Lc    1   --   De 
    116  $t                         0x00002e34   Lc    1   --   De 
    117  $d                         0x00002e3a   Lc    1   --   De 
    118  $t                         0x00002e40   Lc    1   --   De 
    119  $d                         0x00002e4a   Lc    1   --   De 
    120  $t                         0x00002e60   Lc    1   --   De 
    121  $d                         0x00003204   Lc    1   --   De 
    122  $t                         0x00003214   Lc    1   --   De 
    123  $d                         0x00003228   Lc    1   --   De 
    124  $t                         0x0000322c   Lc    1   --   De 
    125  $d                         0x0000348a   Lc    1   --   De 
    126  $t                         0x00003490   Lc    1   --   De 
    127  $d                         0x00003498   Lc    1   --   De 
    128  $t                         0x0000349c   Lc    1   --   De 
    129  $d                         0x000034a6   Lc    1   --   De 
    130  $t                         0x000034ac   Lc    1   --   De 
    131  $d                         0x00003890   Lc    1   --   De 
    132  $t                         0x00003894   Lc    1   --   De 
    133  $d                         0x000038d2   Lc    1   --   De 
    134  $t                         0x000038d8   Lc    1   --   De 
    135  $d                         0x00003972   Lc    1   --   De 
    136  $t                         0x00003978   Lc    1   --   De 
    137  $d                         0x00003b84   Lc    1   --   De 
    138  $t                         0x00003b98   Lc    1   --   De 
    139  $d                         0x00003c72   Lc    1   --   De 
    140  $t                         0x00003c80   Lc    1   --   De 
    141  $d                         0x00003db8   Lc    1   --   De 
    142  $t                         0x00003e58   Lc    1   --   De 
    143  $d                         0x00003f7c   Lc    1   --   De 
    144  $t                         0x00003f84   Lc    1   --   De 
    145  $d                         0x000040b4   Lc    1   --   De 
    146  $t                         0x000040bc   Lc    1   --   De 
    147  $d                         0x000040fc   Lc    1   --   De 
    148  $t                         0x0000412c   Lc    1   --   De 
    149  $d                         0x0000417c   Lc    1   --   De 
    150  $t                         0x00004180   Lc    1   --   De 
    151  $d                         0x000041fe   Lc    1   --   De 
    152  $t                         0x00004202   Lc    1   --   De 
    153  $d.realdata                0x00004240   Lc    1   --   De 
    154  $d.realdata                0x10000000   Lc    2   --   De 
    155  ../src/ios_fifo_host.c     0x00000000   Lc  Abs  File  De 
    156  i.am_gpio_isr              0x0000078e   Lc    1  Sect  De 
    157  i.clear_rx_buf             0x00003214   Lc    1  Sect  De 
    158  i.hostint_handler          0x00003490   Lc    1  Sect  De 
    159  hostint_handler            0x00003491   Lc    1  Code  De   0x8
    160  i.i2c_pins_enable          0x0000349c   Lc    1  Sect  De 
    161  i.iom_set_up               0x000039b4   Lc    1  Sect  De 
    162  iom_set_up                 0x000039b5   Lc    1  Code  De   0x1d0
    163  i.iom_slave_read           0x00003b98   Lc    1  Sect  De 
    164  i.iom_slave_write          0x00003bdc   Lc    1  Sect  De 
    165  i.itm_start                0x00003c20   Lc    1  Sect  De 
    166  i.main                     0x00003c80   Lc    1  Sect  De 
    167  i.update_progress          0x00004098   Lc    1  Sect  De 
    168  i.validate_rx_buf          0x000040bc   Lc    1  Sect  De 
    169  .bss                       0x100000e0   Lc    3  Sect  De   0x400
    170  .constdata                 0x00004240   Lc    1  Sect  De   0x30
    171  apollo2_iomce0             0x00004240   Lc    1  Data  De   0x30
    172  .data                      0x10000000   Lc    2  Sect  De   0x24
    173  g_sIOMSpiConfig            0x10000008   Lc    2  Data  De   0xc
    174  g_sIOMI2cConfig            0x10000014   Lc    2  Data  De   0xc
    175  ../../../../../utils/am_util_delay.c
                                    0x00000000   Lc  Abs  File  De 
    176  ../../../../../utils/am_util_stdio.c
                                    0x00000000   Lc  Abs  File  De 
    177  i.am_util_stdio_printf     0x00002e04   Lc    1  Sect  De 
    178  i.am_util_stdio_printf_init
                                    0x00002e34   Lc    1  Sect  De 
    179  i.am_util_stdio_terminal_clear
                                    0x00002e40   Lc    1  Sect  De 
    180  i.am_util_stdio_vsprintf   0x00002e60   Lc    1  Sect  De 
    181  i.decstr_to_int            0x0000322c   Lc    1  Sect  De 
    182  decstr_to_int              0x0000322d   Lc    1  Code  De   0x42
    183  i.divu64_10                0x0000326e   Lc    1  Sect  De 
    184  divu64_10                  0x0000326f   Lc    1  Code  De   0xcc
    185  i.ftoa                     0x0000333c   Lc    1  Sect  De 
    186  ftoa                       0x0000333d   Lc    1  Code  De   0x14e
    187  i.ndigits_in_hex           0x00003e58   Lc    1  Sect  De 
    188  ndigits_in_hex             0x00003e59   Lc    1  Code  De   0x34
    189  i.ndigits_in_i64           0x00003e8c   Lc    1  Sect  De 
    190  ndigits_in_i64             0x00003e8d   Lc    1  Code  De   0x24
    191  i.ndigits_in_u64           0x00003eb0   Lc    1  Sect  De 
    192  ndigits_in_u64             0x00003eb1   Lc    1  Code  De   0x3a
    193  i.padbuffer                0x00003eea   Lc    1  Sect  De 
    194  padbuffer                  0x00003eeb   Lc    1  Code  De   0x22
    195  i.simple_strlen            0x00003f84   Lc    1  Sect  De 
    196  simple_strlen              0x00003f85   Lc    1  Code  De   0x18
    197  i.uint64_to_hexstr         0x00003f9c   Lc    1  Sect  De 
    198  uint64_to_hexstr           0x00003f9d   Lc    1  Code  De   0x8a
    199  i.uint64_to_str            0x00004026   Lc    1  Sect  De 
    200  uint64_to_str              0x00004027   Lc    1  Code  De   0x70
    201  .bss                       0x100004e0   Lc    3  Sect  De   0x100
    202  g_prfbuf                   0x100004e0   Lc    3  Data  De   0x100
    203  .data                      0x10000024   Lc    2  Sect  De   0x5
    204  g_bTxtXlate                0x10000028   Lc    2  Data  De   0x1
    205  ../keil/startup_keil.s     0x00000000   Lc  Abs  File  De 
    206  STACK                      0x10000908   Lc    3  Sect  De   0x1000
    207  StackMem                   0x10000908   Lc    3  Data  De 
    208  HEAP                       0x10000908   Lc    3  Sect  De 
    209  HeapMem                    0x10000908   Lc    3  Data  De 
    210  RESET                      0x00000000   Lc    1  Sect  De   0xe8
    211  $v0                        0x000000c0   Lc    1   --   De 
    212  .text                      0x000001c4   Lc    1  Sect  De   0x18
    213  $v0                        0x000001c4   Lc    1   --   De 
    214  ../am_hal_global.c         0x00000000   Lc  Abs  File  De 
    215  .data                      0x1000002c   Lc    2  Sect  De   0x4
    216  ../am_bsp.c                0x00000000   Lc  Abs  File  De 
    217  i.am_bsp_debug_printf_enable
                                    0x00000258   Lc    1  Sect  De 
    218  i.am_bsp_iom_enable        0x000002c8   Lc    1  Sect  De 
    219  i.am_bsp_iom_spi_pins_enable
                                    0x000003a4   Lc    1  Sect  De 
    220  i.am_bsp_itm_string_print  0x00000768   Lc    1  Sect  De 
    221  i.am_bsp_low_power_init    0x0000076c   Lc    1  Sect  De 
    222  .data                      0x10000030   Lc    2  Sect  De   0x30
    223  g_SPIpins                  0x10000030   Lc    2  Data  De   0x30
    224  ../am_hal_cachectrl.c      0x00000000   Lc  Abs  File  De 
    225  i.am_hal_cachectrl_enable  0x000007ac   Lc    1  Sect  De 
    226  .constdata                 0x00004270   Lc    1  Sect  De   0xc
    227  ../am_hal_clkgen.c         0x00000000   Lc  Abs  File  De 
    228  i.am_hal_clkgen_osc_stop   0x0000087c   Lc    1  Sect  De 
    229  i.am_hal_clkgen_sysclk_get 0x00000890   Lc    1  Sect  De 
    230  i.am_hal_clkgen_sysclk_select
                                    0x000008b4   Lc    1  Sect  De 
    231  ../am_hal_flash.c          0x00000000   Lc  Abs  File  De 
    232  i.am_hal_flash_delay       0x000009f8   Lc    1  Sect  De 
    233  i.am_hal_flash_delay_status_change
                                    0x00000a04   Lc    1  Sect  De 
    234  .data                      0x10000060   Lc    2  Sect  De   0x50
    235  ../am_hal_gpio.c           0x00000000   Lc  Abs  File  De 
    236  i.am_hal_gpio_int_clear    0x00000a3c   Lc    1  Sect  De 
    237  i.am_hal_gpio_int_enable   0x00000a60   Lc    1  Sect  De 
    238  i.am_hal_gpio_int_register 0x00000a7c   Lc    1  Sect  De 
    239  i.am_hal_gpio_int_service  0x00000ad0   Lc    1  Sect  De 
    240  i.am_hal_gpio_int_status_get
                                    0x00000b28   Lc    1  Sect  De 
    241  .bss                       0x100005e0   Lc    3  Sect  De   0x100
    242  ..\am_hal_interrupt.c      0x00000000   Lc  Abs  File  De 
    243  .emb_text                  0x00000188   Lc    1  Sect  De   0x16
    244  $v0                        0x00000188   Lc    1   --   De 
    245  ../am_hal_interrupt.c      0x00000000   Lc  Abs  File  De 
    246  i.am_hal_interrupt_enable  0x00000e18   Lc    1  Sect  De 
    247  ..\am_hal_iom.c            0x00000000   Lc  Abs  File  De 
    248  .emb_text                  0x000001a0   Lc    1  Sect  De   0x24
    249  $v0                        0x000001a0   Lc    1   --   De 
    250  ../am_hal_iom.c            0x00000000   Lc  Abs  File  De 
    251  i.am_hal_iom_config        0x00000e64   Lc    1  Sect  De 
    252  i.am_hal_iom_enable        0x000010f0   Lc    1  Sect  De 
    253  i.am_hal_iom_fifo_read     0x00001118   Lc    1  Sect  De 
    254  i.am_hal_iom_fifo_write    0x000011f0   Lc    1  Sect  De 
    255  i.am_hal_iom_i2c_cmd_run   0x000012d8   Lc    1  Sect  De 
    256  i.am_hal_iom_i2c_read      0x00001444   Lc    1  Sect  De 
    257  i.am_hal_iom_i2c_read_nb   0x00001584   Lc    1  Sect  De 
    258  i.am_hal_iom_i2c_read_nq   0x00001678   Lc    1  Sect  De 
    259  i.am_hal_iom_i2c_write     0x000017d0   Lc    1  Sect  De 
    260  i.am_hal_iom_i2c_write_nb  0x0000190c   Lc    1  Sect  De 
    261  i.am_hal_iom_i2c_write_nq  0x00001a30   Lc    1  Sect  De 
    262  i.am_hal_iom_pwrctrl_enable
                                    0x00001bb8   Lc    1  Sect  De 
    263  i.am_hal_iom_sleeping_queue_flush
                                    0x00001c1c   Lc    1  Sect  De 
    264  i.am_hal_iom_spi_read      0x00001c74   Lc    1  Sect  De 
    265  i.am_hal_iom_spi_read_nb   0x00001d6c   Lc    1  Sect  De 
    266  i.am_hal_iom_spi_read_nq   0x00001e90   Lc    1  Sect  De 
    267  i.am_hal_iom_spi_write     0x00002014   Lc    1  Sect  De 
    268  i.am_hal_iom_spi_write_nb  0x00002100   Lc    1  Sect  De 
    269  i.am_hal_iom_spi_write_nq  0x0000221c   Lc    1  Sect  De 
    270  i.am_hal_iom_workaround_word_write
                                    0x0000237c   Lc    1  Sect  De 
    271  i.internal_iom_get_int_err 0x00003978   Lc    1  Sect  De 
    272  internal_iom_get_int_err   0x00003979   Lc    1  Code  De   0x3a
    273  .bss                       0x100006e0   Lc    3  Sect  De   0x198
    274  .constdata                 0x0000427c   Lc    1  Sect  De   0x41
    275  .data                      0x100000b0   Lc    2  Sect  De   0x12
    276  g_iom_error_status         0x100000bb   Lc    2  Data  De   0x7
    277  ../am_hal_itm.c            0x00000000   Lc  Abs  File  De 
    278  i.am_hal_itm_enable        0x00002820   Lc    1  Sect  De 
    279  i.am_hal_itm_print         0x00002878   Lc    1  Sect  De 
    280  ../am_hal_sysctrl.c        0x00000000   Lc  Abs  File  De 
    281  i.am_hal_sysctrl_sleep     0x00002c84   Lc    1  Sect  De 
    282  i.setBuckZX                0x00003f0c   Lc    1  Sect  De 
    283  setBuckZX                  0x00003f0d   Lc    1  Code  De   0x70
    284  .data                      0x100000c4   Lc    2  Sect  De   0x1c
    285  g_bBuckRestoreComplete     0x100000c4   Lc    2  Data  De   0x1
    286  g_ui32BuckTimer            0x100000c8   Lc    2  Data  De   0x4
    287  g_ui32BuckInputs           0x100000cc   Lc    2  Data  De   0x4
    288  g_buckZX_chk               0x100000d0   Lc    2  Data  De   0x4
    289  g_ui32SaveCoreBuckZX       0x100000d4   Lc    2  Data  De   0x4
    290  g_ui32SaveMemBuckZX        0x100000d8   Lc    2  Data  De   0x4
    291  g_ui32CoreBuck             0x100000dc   Lc    2  Data  De   0x4
    292  ..\am_hal_ctimer.c         0x00000000   Lc  Abs  File  De 
    293  ../am_hal_ctimer.c         0x00000000   Lc  Abs  File  De 
    294  i.am_hal_ctimer_clear      0x00000920   Lc    1  Sect  De 
    295  i.am_hal_ctimer_period_set 0x00000948   Lc    1  Sect  De 
    296  i.am_hal_ctimer_start      0x000009c4   Lc    1  Sect  De 
    297  ../am_hal_debug.c          0x00000000   Lc  Abs  File  De 
    298  i.am_hal_debug_error       0x000009f4   Lc    1  Sect  De 
    299  ../am_hal_i2c_bit_bang.c   0x00000000   Lc  Abs  File  De 
    300  i.am_hal_i2c_bit_bang_receive
                                    0x00000b70   Lc    1  Sect  De 
    301  i.am_hal_i2c_bit_bang_send 0x00000d4c   Lc    1  Sect  De 
    302  i.i2c_pull_and_wait_scl_hi 0x0000389c   Lc    1  Sect  De 
    303  i2c_pull_and_wait_scl_hi   0x0000389d   Lc    1  Code  De   0x36
    304  i.i2c_send_byte            0x000038d8   Lc    1  Sect  De 
    305  i2c_send_byte              0x000038d9   Lc    1  Code  De   0x9a
    306  .bss                       0x10000878   Lc    3  Sect  De   0x2c
    307  am_hal_i2c_bit_bang_priv   0x10000878   Lc    3  Data  De   0x2c
    308  ../am_hal_pwrctrl.c        0x00000000   Lc  Abs  File  De 
    309  i.am_hal_pwrctrl_bucks_disable
                                    0x000028a8   Lc    1  Sect  De 
    310  i.am_hal_pwrctrl_bucks_enable
                                    0x000028f4   Lc    1  Sect  De 
    311  i.am_hal_pwrctrl_bucks_init
                                    0x00002928   Lc    1  Sect  De 
    312  i.am_hal_pwrctrl_low_power_init
                                    0x00002968   Lc    1  Sect  De 
    313  i.am_hal_pwrctrl_memory_enable
                                    0x00002980   Lc    1  Sect  De 
    314  i.am_hal_pwrctrl_periph_enable
                                    0x00002b00   Lc    1  Sect  De 
    315  ../am_hal_queue.c          0x00000000   Lc  Abs  File  De 
    316  i.am_hal_queue_item_add    0x00002bc0   Lc    1  Sect  De 
    317  ../am_hal_rtc.c            0x00000000   Lc  Abs  File  De 
    318  i.am_hal_rtc_osc_disable   0x00002c5e   Lc    1  Sect  De 
    319  i.am_hal_rtc_osc_select    0x00002c6c   Lc    1  Sect  De 
    320  ../am_hal_tpiu.c           0x00000000   Lc  Abs  File  De 
    321  i.am_hal_tpiu_enable       0x00002d70   Lc    1  Sect  De 
    322  ../am_hal_uart.c           0x00000000   Lc  Abs  File  De 
    323  ../am_hal_vcomp.c          0x00000000   Lc  Abs  File  De 
    324  i.am_hal_vcomp_disable     0x00002df8   Lc    1  Sect  De 
    325  dc.s                       0x00000000   Lc  Abs  File  De 
    326  ../clib/longlong.s         0x00000000   Lc  Abs  File  De 
    327  ../clib/heapaux.c          0x00000000   Lc  Abs  File  De 
    328  .text                      0x000001dc   Lc    1  Sect  De 
    329  ../clib/angel/startup.s    0x00000000   Lc  Abs  File  De 
    330  !!!main                    0x000000e8   Lc    1  Sect  De   0x8
    331  ../fplib/d2f.s             0x00000000   Lc  Abs  File  De 
    332  x$fpl$d2f                  0x0000412c   Lc    1  Sect  De   0x62
    333  $v0                        0x0000412c   Lc    1   --   De 
    334  ../clib/angel/kernel.s     0x00000000   Lc  Abs  File  De 
    335  .ARM.Collect$$rtentry$$00000000
                                    0x00000168   Lc    1  Sect  De 
    336  ../fplib/dnaninf.s         0x00000000   Lc  Abs  File  De 
    337  x$fpl$dnaninf              0x0000418e   Lc    1  Sect  De   0x9c
    338  $v0                        0x0000418e   Lc    1   --   De 
    339  ../fplib/fretinf.s         0x00000000   Lc  Abs  File  De 
    340  x$fpl$fretinf              0x00004234   Lc    1  Sect  De   0xa
    341  $v0                        0x00004234   Lc    1   --   De 
    342  ../fplib/usenofp.s         0x00000000   Lc  Abs  File  De 
    343  x$fpl$usenofp              0x0000423e   Lc    1  Sect  De 
    344  ../clib/angel/kernel.s     0x00000000   Lc  Abs  File  De 
    345  .ARM.Collect$$rtentry$$00000002
                                    0x00000168   Lc    1  Sect  De 
    346  .ARM.Collect$$rtentry$$00000009
                                    0x0000016e   Lc    1  Sect  De 
    347  .ARM.Collect$$rtentry$$0000000A
                                    0x0000016e   Lc    1  Sect  De   0x4
    348  .ARM.Collect$$rtentry$$0000000C
                                    0x00000172   Lc    1  Sect  De 
    349  .ARM.Collect$$rtentry$$0000000D
                                    0x00000172   Lc    1  Sect  De   0x8
    350  ../clib/angel/kernel.s     0x00000000   Lc  Abs  File  De 
    351  .ARM.Collect$$rtentry$$00000004
                                    0x00000168   Lc    1  Sect  De   0x6
    352  ../clib/angel/sys.s        0x00000000   Lc  Abs  File  De 
    353  .text                      0x000001e2   Lc    1  Sect  De   0x4a
    354  ../clib/stdlib.c           0x00000000   Lc  Abs  File  De 
    355  .text                      0x0000022c   Lc    1  Sect  De 
    356  ../clib/angel/boardlib.s   0x00000000   Lc  Abs  File  De 
    357  ../clib/angel/boardlib.s   0x00000000   Lc  Abs  File  De 
    358  ../clib/angel/boardlib.s   0x00000000   Lc  Abs  File  De 
    359  ../clib/libinit.s          0x00000000   Lc  Abs  File  De 
    360  .ARM.Collect$$libinit$$00000000
                                    0x0000015c   Lc    1  Sect  De   0x2
    361  ../clib/angel/sys.s        0x00000000   Lc  Abs  File  De 
    362  .text                      0x00000240   Lc    1  Sect  De   0x8
    363  .bss                       0x100008a4   Lc    3  Sect  De   0x60
    364  ../clib/angel/kernel.s     0x00000000   Lc  Abs  File  De 
    365  .ARM.Collect$$rtexit$$00000000
                                    0x0000017a   Lc    1  Sect  De   0x2
    366  ../clib/libinit.s          0x00000000   Lc  Abs  File  De 
    367  .ARM.Collect$$libinit$$00000001
                                    0x0000015e   Lc    1  Sect  De   0x4
    368  .ARM.Collect$$libinit$$00000004
                                    0x00000162   Lc    1  Sect  De 
    369  .ARM.Collect$$libinit$$0000000A
                                    0x00000162   Lc    1  Sect  De 
    370  .ARM.Collect$$libinit$$0000000C
                                    0x00000162   Lc    1  Sect  De 
    371  .ARM.Collect$$libinit$$0000000E
                                    0x00000162   Lc    1  Sect  De 
    372  .ARM.Collect$$libinit$$00000011
                                    0x00000162   Lc    1  Sect  De 
    373  .ARM.Collect$$libinit$$00000013
                                    0x00000162   Lc    1  Sect  De 
    374  .ARM.Collect$$libinit$$00000015
                                    0x00000162   Lc    1  Sect  De 
    375  .ARM.Collect$$libinit$$00000017
                                    0x00000162   Lc    1  Sect  De 
    376  .ARM.Collect$$libinit$$00000019
                                    0x00000162   Lc    1  Sect  De 
    377  .ARM.Collect$$libinit$$0000001B
                                    0x00000162   Lc    1  Sect  De 
    378  .ARM.Collect$$libinit$$0000001D
                                    0x00000162   Lc    1  Sect  De 
    379  .ARM.Collect$$libinit$$0000001F
                                    0x00000162   Lc    1  Sect  De 
    380  .ARM.Collect$$libinit$$00000021
                                    0x00000162   Lc    1  Sect  De 
    381  .ARM.Collect$$libinit$$00000023
                                    0x00000162   Lc    1  Sect  De 
    382  .ARM.Collect$$libinit$$00000025
                                    0x00000162   Lc    1  Sect  De 
    383  .ARM.Collect$$libinit$$0000002C
                                    0x00000162   Lc    1  Sect  De 
    384  .ARM.Collect$$libinit$$0000002E
                                    0x00000162   Lc    1  Sect  De 
    385  .ARM.Collect$$libinit$$00000030
                                    0x00000162   Lc    1  Sect  De 
    386  .ARM.Collect$$libinit$$00000032
                                    0x00000162   Lc    1  Sect  De 
    387  .ARM.Collect$$libinit$$00000033
                                    0x00000162   Lc    1  Sect  De   0x2
    388  ../clib/angel/kernel.s     0x00000000   Lc  Abs  File  De 
    389  .ARM.Collect$$rtexit$$00000002
                                    0x0000017c   Lc    1  Sect  De 
    390  .ARM.Collect$$rtexit$$00000003
                                    0x0000017c   Lc    1  Sect  De   0x4
    391  .ARM.Collect$$rtexit$$00000004
                                    0x00000180   Lc    1  Sect  De   0x6
    392  ../clib/armsys.c           0x00000000   Lc  Abs  File  De 
    393  ../clib/armsys.c           0x00000000   Lc  Abs  File  De 
    394  ../fplib/fpinit.s          0x00000000   Lc  Abs  File  De 
    395  x$fpl$fpinit               0x0000422a   Lc    1  Sect  De   0xa
    396  $v0                        0x0000422a   Lc    1   --   De 
    397  ../clib/angel/sysapp.c     0x00000000   Lc  Abs  File  De 
    398  .text                      0x00000248   Lc    1  Sect  De 
    399  ../clib/angel/boardlib.s   0x00000000   Lc  Abs  File  De 
    400  ../clib/armsys.c           0x00000000   Lc  Abs  File  De 
    401  ../clib/armsys.c           0x00000000   Lc  Abs  File  De 
    402  ../clib/libinit.s          0x00000000   Lc  Abs  File  De 
    403  .ARM.Collect$$libshutdown$$00000000
                                    0x00000164   Lc    1  Sect  De   0x2
    404  ../clib/angel/sysapp.c     0x00000000   Lc  Abs  File  De 
    405  ../clib/angel/sys.s        0x00000000   Lc  Abs  File  De 
    406  .text                      0x00000254   Lc    1  Sect  De   0x2
    407  ../clib/angel/sys.s        0x00000000   Lc  Abs  File  De 
    408  .text                      0x00000256   Lc    1  Sect  De 
    409  ../clib/heapalloc.c        0x00000000   Lc  Abs  File  De 
    410  ../clib/signal.c           0x00000000   Lc  Abs  File  De 
    411  ../clib/signal.c           0x00000000   Lc  Abs  File  De 
    412  ../clib/libinit.s          0x00000000   Lc  Abs  File  De 
    413  .ARM.Collect$$libshutdown$$00000002
                                    0x00000166   Lc    1  Sect  De 
    414  .ARM.Collect$$libshutdown$$00000004
                                    0x00000166   Lc    1  Sect  De 
    415  .ARM.Collect$$libshutdown$$00000007
                                    0x00000166   Lc    1  Sect  De 
    416  .ARM.Collect$$libshutdown$$0000000A
                                    0x00000166   Lc    1  Sect  De 
    417  .ARM.Collect$$libshutdown$$0000000C
                                    0x00000166   Lc    1  Sect  De 
    418  .ARM.Collect$$libshutdown$$0000000F
                                    0x00000166   Lc    1  Sect  De 
    419  .ARM.Collect$$libshutdown$$00000010
                                    0x00000166   Lc    1  Sect  De   0x2
    420  ../clib/angel/rt.s         0x00000000   Lc  Abs  File  De 
    421  ../clib/signal.c           0x00000000   Lc  Abs  File  De 
    422  ../clib/signal.c           0x00000000   Lc  Abs  File  De 
    423  ../clib/signal.c           0x00000000   Lc  Abs  File  De 
    424  ../clib/signal.c           0x00000000   Lc  Abs  File  De 
    425  ../clib/angel/sysapp.c     0x00000000   Lc  Abs  File  De 
    426  ../clib/signal.s           0x00000000   Lc  Abs  File  De 
    427  ../clib/signal.c           0x00000000   Lc  Abs  File  De 
    428  ../clib/signal.c           0x00000000   Lc  Abs  File  De 
    429  ../clib/signal.c           0x00000000   Lc  Abs  File  De 
    430  ../clib/signal.c           0x00000000   Lc  Abs  File  De 
    431  ../clib/signal.c           0x00000000   Lc  Abs  File  De 
    432  ../clib/signal.c           0x00000000   Lc  Abs  File  De 
    433  ../clib/signal.c           0x00000000   Lc  Abs  File  De 
    434  ../clib/signal.c           0x00000000   Lc  Abs  File  De 
    435  ../clib/angel/scatter.s    0x00000000   Lc  Abs  File  De 
    436  !!!scatter                 0x000000f0   Lc    1  Sect  De   0x34
    437  ../clib/angel/handlers.s   0x00000000   Lc  Abs  File  De 
    438  !!handler_copy             0x00000124   Lc    1  Sect  De   0x1a
    439  ../clib/angel/handlers.s   0x00000000   Lc  Abs  File  De 
    440  !!handler_zi               0x00000140   Lc    1  Sect  De   0x1c
    441  BuildAttributes$$THM_ISAv4$E$P$D$K$B$S$7EM$VFPi3$EXTD16$VFPS$VFMA$PE$A:L22UL41UL21$X:L11$S22US41US21$IEEE1$IW$USESV6$~STKCKD$USESV7$~SHL$OTIME$ROPI$EBA8$UX$STANDARDLIB$REQ8$EABIv2
                                    0x00000000   Gb  Abs   --   Hi 
    442  __ARM_use_no_argv          0x00000000   Gb  Abs   --   Hi 
    443  __Vectors                  0x00000000   Gb    1  Data  Hi 
    444  Reset_Handler              0x000000c1   Wk    1  Code  Hi   0x1c
    445  am_nmi_isr                 0x000000dd   Wk    1  Code  Hi   0x2
    446  am_fault_isr               0x000000df   Wk    1  Code  Hi   0x2
    447  am_memmanage_isr           0x000000e1   Wk    1  Code  Hi   0x2
    448  am_adc_isr                 0x000000e3   Wk    1  Code  Hi 
    449  am_brownout_isr            0x000000e3   Wk    1  Code  Hi 
    450  am_clkgen_isr              0x000000e3   Wk    1  Code  Hi 
    451  am_ctimer_isr              0x000000e3   Wk    1  Code  Hi 
    452  am_debugmon_isr            0x000000e3   Wk    1  Code  Hi 
    453  am_flash_isr               0x000000e3   Wk    1  Code  Hi 
    454  am_iomaster0_isr           0x000000e3   Wk    1  Code  Hi 
    455  am_iomaster1_isr           0x000000e3   Wk    1  Code  Hi 
    456  am_iomaster2_isr           0x000000e3   Wk    1  Code  Hi 
    457  am_iomaster3_isr           0x000000e3   Wk    1  Code  Hi 
    458  am_iomaster4_isr           0x000000e3   Wk    1  Code  Hi 
    459  am_iomaster5_isr           0x000000e3   Wk    1  Code  Hi 
    460  am_ioslave_acc_isr         0x000000e3   Wk    1  Code  Hi 
    461  am_ioslave_ios_isr         0x000000e3   Wk    1  Code  Hi 
    462  am_pdm_isr                 0x000000e3   Wk    1  Code  Hi 
    463  am_pendsv_isr              0x000000e3   Wk    1  Code  Hi 
    464  am_software0_isr           0x000000e3   Wk    1  Code  Hi 
    465  am_software1_isr           0x000000e3   Wk    1  Code  Hi 
    466  am_software2_isr           0x000000e3   Wk    1  Code  Hi 
    467  am_software3_isr           0x000000e3   Wk    1  Code  Hi 
    468  am_stimer_cmpr0_isr        0x000000e3   Wk    1  Code  Hi 
    469  am_stimer_cmpr1_isr        0x000000e3   Wk    1  Code  Hi 
    470  am_stimer_cmpr2_isr        0x000000e3   Wk    1  Code  Hi 
    471  am_stimer_cmpr3_isr        0x000000e3   Wk    1  Code  Hi 
    472  am_stimer_cmpr4_isr        0x000000e3   Wk    1  Code  Hi 
    473  am_stimer_cmpr5_isr        0x000000e3   Wk    1  Code  Hi 
    474  am_stimer_cmpr6_isr        0x000000e3   Wk    1  Code  Hi 
    475  am_stimer_cmpr7_isr        0x000000e3   Wk    1  Code  Hi 
    476  am_stimer_isr              0x000000e3   Wk    1  Code  Hi 
    477  am_svcall_isr              0x000000e3   Wk    1  Code  Hi 
    478  am_systick_isr             0x000000e3   Wk    1  Code  Hi 
    479  am_uart0_isr               0x000000e3   Wk    1  Code  Hi 
    480  am_uart1_isr               0x000000e3   Wk    1  Code  Hi 
    481  am_uart_isr                0x000000e3   Wk    1  Code  Hi 
    482  am_vcomp_isr               0x000000e3   Wk    1  Code  Hi 
    483  am_watchdog_isr            0x000000e3   Wk    1  Code  Hi 
    484  __main                     0x000000e9   Gb    1  Code  Hi   0x8
    485  __scatterload              0x000000f1   Gb    1  Code  Hi 
    486  __scatterload_rt2          0x000000f1   Gb    1  Code  Hi   0x2c
    487  __scatterload_rt2_thumb_only
                                    0x000000f1   Gb    1  Code  Hi 
    488  __scatterload_null         0x000000ff   Gb    1  Code  Hi 
    489  __scatterload_copy         0x00000125   Gb    1  Code  Hi   0x1a
    490  __scatterload_zeroinit     0x00000141   Gb    1  Code  Hi   0x1c
    491  __rt_lib_init              0x0000015d   Gb    1  Code  De 
    492  __rt_lib_init_fp_1         0x0000015f   Gb    1  Code  Hi 
    493  __rt_lib_init_alloca_1     0x00000163   Gb    1  Code  Hi 
    494  __rt_lib_init_argv_1       0x00000163   Gb    1  Code  Hi 
    495  __rt_lib_init_atexit_1     0x00000163   Gb    1  Code  Hi 
    496  __rt_lib_init_clock_1      0x00000163   Gb    1  Code  Hi 
    497  __rt_lib_init_cpp_1        0x00000163   Gb    1  Code  Hi 
    498  __rt_lib_init_exceptions_1 0x00000163   Gb    1  Code  Hi 
    499  __rt_lib_init_fp_trap_1    0x00000163   Gb    1  Code  Hi 
    500  __rt_lib_init_getenv_1     0x00000163   Gb    1  Code  Hi 
    501  __rt_lib_init_heap_1       0x00000163   Gb    1  Code  Hi 
    502  __rt_lib_init_lc_collate_1 0x00000163   Gb    1  Code  Hi 
    503  __rt_lib_init_lc_ctype_1   0x00000163   Gb    1  Code  Hi 
    504  __rt_lib_init_lc_monetary_1
                                    0x00000163   Gb    1  Code  Hi 
    505  __rt_lib_init_lc_numeric_1 0x00000163   Gb    1  Code  Hi 
    506  __rt_lib_init_lc_time_1    0x00000163   Gb    1  Code  Hi 
    507  __rt_lib_init_preinit_1    0x00000163   Gb    1  Code  Hi 
    508  __rt_lib_init_rand_1       0x00000163   Gb    1  Code  Hi 
    509  __rt_lib_init_return       0x00000163   Gb    1  Code  Hi 
    510  __rt_lib_init_signal_1     0x00000163   Gb    1  Code  Hi 
    511  __rt_lib_init_stdio_1      0x00000163   Gb    1  Code  Hi 
    512  __rt_lib_init_user_alloc_1 0x00000163   Gb    1  Code  Hi 
    513  __rt_lib_shutdown          0x00000165   Gb    1  Code  De 
    514  __rt_lib_shutdown_cpp_1    0x00000167   Gb    1  Code  Hi 
    515  __rt_lib_shutdown_fp_trap_1
                                    0x00000167   Gb    1  Code  Hi 
    516  __rt_lib_shutdown_heap_1   0x00000167   Gb    1  Code  Hi 
    517  __rt_lib_shutdown_return   0x00000167   Gb    1  Code  Hi 
    518  __rt_lib_shutdown_signal_1 0x00000167   Gb    1  Code  Hi 
    519  __rt_lib_shutdown_stdio_1  0x00000167   Gb    1  Code  Hi 
    520  __rt_lib_shutdown_user_alloc_1
                                    0x00000167   Gb    1  Code  Hi 
    521  __rt_entry                 0x00000169   Gb    1  Code  Hi 
    522  __rt_entry_presh_1         0x00000169   Gb    1  Code  Hi 
    523  __rt_entry_sh              0x00000169   Gb    1  Code  Hi 
    524  __rt_entry_li              0x0000016f   Gb    1  Code  Hi 
    525  __rt_entry_postsh_1        0x0000016f   Gb    1  Code  Hi 
    526  __rt_entry_main            0x00000173   Gb    1  Code  Hi 
    527  __rt_entry_postli_1        0x00000173   Gb    1  Code  Hi 
    528  __rt_exit                  0x0000017b   Gb    1  Code  De 
    529  __rt_exit_ls               0x0000017d   Gb    1  Code  Hi 
    530  __rt_exit_prels_1          0x0000017d   Gb    1  Code  Hi 
    531  __rt_exit_exit             0x00000181   Gb    1  Code  Hi 
    532  am_hal_interrupt_master_enable
                                    0x00000189   Gb    1  Code  Hi   0x8
    533  am_hal_interrupt_master_disable
                                    0x00000191   Gb    1  Code  Hi   0x8
    534  am_hal_interrupt_master_set
                                    0x00000199   Gb    1  Code  Hi   0x6
    535  __asm___12_am_hal_iom_c_97762dd2__iom_workaround_loop
                                    0x000001a1   Gb    1  Code  Hi   0x20
    536  __user_initial_stackheap   0x000001c5   Gb    1  Code  Hi   0xa
    537  __use_two_region_memory    0x000001dd   Gb    1  Code  Hi   0x2
    538  __rt_heap_escrow$2region   0x000001df   Gb    1  Code  De   0x2
    539  __rt_heap_expand$2region   0x000001e1   Gb    1  Code  De   0x2
    540  __user_setup_stackheap     0x000001e3   Gb    1  Code  De   0x4a
    541  exit                       0x0000022d   Gb    1  Code  De   0x12
    542  __user_libspace            0x00000241   Wk    1  Code  De   0x8
    543  __user_perproc_libspace    0x00000241   Wk    1  Code  De 
    544  __user_perthread_libspace  0x00000241   Wk    1  Code  De 
    545  _sys_exit                  0x00000249   Gb    1  Code  De   0x8
    546  __I$use$semihosting        0x00000255   Gb    1  Code  Hi 
    547  __use_no_semihosting_swi   0x00000255   Gb    1  Code  Hi   0x2
    548  __semihosting_library_function
                                    0x00000257   Gb    1  Code  Hi 
    549  am_bsp_debug_printf_enable 0x00000259   Gb    1  Code  Hi   0x5c
    550  am_bsp_iom_enable          0x000002c9   Gb    1  Code  Hi   0xd0
    551  am_bsp_iom_spi_pins_enable 0x000003a5   Gb    1  Code  Hi   0x3be
    552  am_bsp_itm_string_print    0x00000769   Gb    1  Code  Hi   0x4
    553  am_bsp_low_power_init      0x0000076d   Gb    1  Code  Hi   0x22
    554  am_gpio_isr                0x0000078f   Gb    1  Code  Hi   0x1e
    555  am_hal_cachectrl_enable    0x000007ad   Gb    1  Code  Hi   0xcc
    556  am_hal_clkgen_osc_stop     0x0000087d   Gb    1  Code  Hi   0x14
    557  am_hal_clkgen_sysclk_get   0x00000891   Gb    1  Code  Hi   0x1c
    558  am_hal_clkgen_sysclk_select
                                    0x000008b5   Gb    1  Code  Hi   0x20
    559  am_hal_ctimer_clear        0x00000921   Gb    1  Code  Hi   0x24
    560  am_hal_ctimer_period_set   0x00000949   Gb    1  Code  Hi   0x70
    561  am_hal_ctimer_start        0x000009c5   Gb    1  Code  Hi   0x2a
    562  am_hal_debug_error         0x000009f5   Wk    1  Code  Hi   0x2
    563  am_hal_flash_delay         0x000009f9   Gb    1  Code  Hi   0x6
    564  am_hal_flash_delay_status_change
                                    0x00000a05   Gb    1  Code  Hi   0x34
    565  am_hal_gpio_int_clear      0x00000a3d   Gb    1  Code  Hi   0x1e
    566  am_hal_gpio_int_enable     0x00000a61   Gb    1  Code  Hi   0x18
    567  am_hal_gpio_int_register   0x00000a7d   Gb    1  Code  Hi   0x1e
    568  am_hal_gpio_int_service    0x00000ad1   Gb    1  Code  Hi   0x54
    569  am_hal_gpio_int_status_get 0x00000b29   Gb    1  Code  Hi   0x42
    570  am_hal_i2c_bit_bang_receive
                                    0x00000b71   Gb    1  Code  Hi   0x1d6
    571  am_hal_i2c_bit_bang_send   0x00000d4d   Gb    1  Code  Hi   0xc6
    572  am_hal_interrupt_enable    0x00000e19   Gb    1  Code  Hi   0x46
    573  am_hal_iom_config          0x00000e65   Gb    1  Code  Hi   0x26e
    574  am_hal_iom_enable          0x000010f1   Gb    1  Code  Hi   0x24
    575  am_hal_iom_fifo_read       0x00001119   Gb    1  Code  Hi   0x90
    576  am_hal_iom_fifo_write      0x000011f1   Gb    1  Code  Hi   0xa4
    577  am_hal_iom_i2c_cmd_run     0x000012d9   Gb    1  Code  Hi   0x154
    578  am_hal_iom_i2c_read        0x00001445   Gb    1  Code  Hi   0x12a
    579  am_hal_iom_i2c_read_nb     0x00001585   Gb    1  Code  Hi   0xe2
    580  am_hal_iom_i2c_read_nq     0x00001679   Gb    1  Code  Hi   0x144
    581  am_hal_iom_i2c_write       0x000017d1   Gb    1  Code  Hi   0x128
    582  am_hal_iom_i2c_write_nb    0x0000190d   Gb    1  Code  Hi   0x112
    583  am_hal_iom_i2c_write_nq    0x00001a31   Gb    1  Code  Hi   0x174
    584  am_hal_iom_pwrctrl_enable  0x00001bb9   Gb    1  Code  Hi   0x20
    585  am_hal_iom_sleeping_queue_flush
                                    0x00001c1d   Gb    1  Code  Hi   0x4e
    586  am_hal_iom_spi_read        0x00001c75   Gb    1  Code  Hi   0xe8
    587  am_hal_iom_spi_read_nb     0x00001d6d   Gb    1  Code  Hi   0x104
    588  am_hal_iom_spi_read_nq     0x00001e91   Gb    1  Code  Hi   0x164
    589  am_hal_iom_spi_write       0x00002015   Gb    1  Code  Hi   0xda
    590  am_hal_iom_spi_write_nb    0x00002101   Gb    1  Code  Hi   0x108
    591  am_hal_iom_spi_write_nq    0x0000221d   Gb    1  Code  Hi   0x148
    592  am_hal_iom_workaround_word_write
                                    0x0000237d   Gb    1  Code  Hi   0x4a4
    593  am_hal_itm_enable          0x00002821   Gb    1  Code  Hi   0x38
    594  am_hal_itm_print           0x00002879   Gb    1  Code  Hi   0x30
    595  am_hal_pwrctrl_bucks_disable
                                    0x000028a9   Gb    1  Code  Hi   0x44
    596  am_hal_pwrctrl_bucks_enable
                                    0x000028f5   Gb    1  Code  Hi   0x2e
    597  am_hal_pwrctrl_bucks_init  0x00002929   Gb    1  Code  Hi   0x3c
    598  am_hal_pwrctrl_low_power_init
                                    0x00002969   Gb    1  Code  Hi   0x14
    599  am_hal_pwrctrl_memory_enable
                                    0x00002981   Gb    1  Code  Hi   0x174
    600  am_hal_pwrctrl_periph_enable
                                    0x00002b01   Gb    1  Code  Hi   0x72
    601  am_hal_queue_item_add      0x00002bc1   Gb    1  Code  Hi   0x9e
    602  am_hal_rtc_osc_disable     0x00002c5f   Gb    1  Code  Hi   0xe
    603  am_hal_rtc_osc_select      0x00002c6d   Gb    1  Code  Hi   0x16
    604  am_hal_sysctrl_sleep       0x00002c85   Gb    1  Code  Hi   0xda
    605  am_hal_tpiu_enable         0x00002d71   Gb    1  Code  Hi   0x74
    606  am_hal_vcomp_disable       0x00002df9   Gb    1  Code  Hi   0x8
    607  am_util_stdio_printf       0x00002e05   Gb    1  Code  Hi   0x28
    608  am_util_stdio_printf_init  0x00002e35   Gb    1  Code  Hi   0x6
    609  am_util_stdio_terminal_clear
                                    0x00002e41   Gb    1  Code  Hi   0xa
    610  am_util_stdio_vsprintf     0x00002e61   Gb    1  Code  Hi   0x3a4
    611  clear_rx_buf               0x00003215   Gb    1  Code  Hi   0x14
    612  i2c_pins_enable            0x0000349d   Gb    1  Code  Hi   0x400
    613  iom_slave_read             0x00003b99   Gb    1  Code  Hi   0x44
    614  iom_slave_write            0x00003bdd   Gb    1  Code  Hi   0x44
    615  itm_start                  0x00003c21   Gb    1  Code  Hi   0x52
    616  main                       0x00003c81   Gb    1  Code  Hi   0x138
    617  update_progress            0x00004099   Gb    1  Code  Hi   0x1c
    618  validate_rx_buf            0x000040bd   Gb    1  Code  Hi   0x40
    619  __aeabi_d2f                0x0000412d   Gb    1  Code  Hi 
    620  _d2f                       0x0000412d   Gb    1  Code  De   0x62
    621  __fpl_dnaninf              0x0000418f   Gb    1  Code  De   0x9c
    622  _fp_init                   0x0000422b   Gb    1  Code  De   0xa
    623  __fplib_config_fpu_vfp     0x00004233   Gb    1  Code  De 
    624  __fplib_config_pureend_doubles
                                    0x00004233   Gb    1  Code  De 
    625  __fpl_fretinf              0x00004235   Gb    1  Code  De   0xa
    626  __I$use$fp                 0x0000423e   Gb    1   --   De 
    627  am_hal_cachectrl_defaults  0x00004270   Gb    1  Data  Hi   0xc
    628  i2c_bb_errmap              0x0000427c   Gb    1  Data  Hi   0x5
    629  g_IOMPads                  0x00004281   Gb    1  Data  Hi   0x27
    630  g_I2CPads                  0x000042a8   Gb    1  Data  Hi   0x15
    631  Region$$Table$$Base        0x000042c0   Gb    1   --   Hi 
    632  Region$$Table$$Limit       0x000042e0   Gb    1   --   Hi 
    633  g_startIdx                 0x10000000   Gb    2  Data  Hi   0x4
    634  bIosInt                    0x10000004   Gb    2  Data  Hi   0x1
    635  g_ui32LastUpdate           0x10000020   Gb    2  Data  Hi   0x4
    636  g_pfnCharPrint             0x10000024   Gb    2  Data  Hi   0x4
    637  g_ui32HALflags             0x1000002c   Gb    2  Data  Hi   0x4
    638  g_am_hal_flash             0x10000060   Gb    2  Data  Hi   0x50
    639  am_hal_iom_queue_flush     0x100000b0   Gb    2  Data  Hi   0x4
    640  g_bIomBusy                 0x100000b4   Gb    2  Data  Hi   0x7
    641  g_pui8RcvBuf               0x100000e0   Gb    3  Data  Hi   0x400
    642  am_hal_gpio_ppfnHandlers   0x100005e0   Gb    3  Data  Hi   0x100
    643  g_psIOMBuffers             0x100006e0   Gb    3  Data  Hi   0x78
    644  ui32StatusTimeout          0x10000758   Gb    3  Data  Hi   0x18
    645  g_psIOMQueue               0x10000770   Gb    3  Data  Hi   0x90
    646  am_hal_iom_pwrsave         0x10000800   Gb    3  Data  Hi   0x78
    647  __libspace_start           0x100008a4   Gb    3  Data  De   0x60
    648  __temporary_stack_top$libspace
                                    0x10000904   Gb    3  Data  De 


** Section #12 '.strtab' (SHT_STRTAB)
    Size   : 9276 bytes

            #  Offset String
        ====================================

            1      1: $d
            2      4: $t
            3      7: $d.realdata
            4     19: ../src/ios_fifo_host.c
            5     42: i.am_gpio_isr
            6     56: i.clear_rx_buf
            7     71: i.hostint_handler
            8     89: hostint_handler
            9    105: i.i2c_pins_enable
           10    123: i.iom_set_up
           11    136: iom_set_up
           12    147: i.iom_slave_read
           13    164: i.iom_slave_write
           14    182: i.itm_start
           15    194: i.main
           16    201: i.update_progress
           17    219: i.validate_rx_buf
           18    237: .bss
           19    242: .constdata
           20    253: apollo2_iomce0
           21    268: .data
           22    274: g_sIOMSpiConfig
           23    290: g_sIOMI2cConfig
           24    306: ../../../../../utils/am_util_delay.c
           25    343: ../../../../../utils/am_util_stdio.c
           26    380: i.am_util_stdio_printf
           27    403: i.am_util_stdio_printf_init
           28    431: i.am_util_stdio_terminal_clear
           29    462: i.am_util_stdio_vsprintf
           30    487: i.decstr_to_int
           31    503: decstr_to_int
           32    517: i.divu64_10
           33    529: divu64_10
           34    539: i.ftoa
           35    546: ftoa
           36    551: i.ndigits_in_hex
           37    568: ndigits_in_hex
           38    583: i.ndigits_in_i64
           39    600: ndigits_in_i64
           40    615: i.ndigits_in_u64
           41    632: ndigits_in_u64
           42    647: i.padbuffer
           43    659: padbuffer
           44    669: i.simple_strlen
           45    685: simple_strlen
           46    699: i.uint64_to_hexstr
           47    718: uint64_to_hexstr
           48    735: i.uint64_to_str
           49    751: uint64_to_str
           50    765: g_prfbuf
           51    774: g_bTxtXlate
           52    786: ../keil/startup_keil.s
           53    809: STACK
           54    815: StackMem
           55    824: HEAP
           56    829: HeapMem
           57    837: RESET
           58    843: $v0
           59    847: .text
           60    853: ../am_hal_global.c
           61    872: ../am_bsp.c
           62    884: i.am_bsp_debug_printf_enable
           63    913: i.am_bsp_iom_enable
           64    933: i.am_bsp_iom_spi_pins_enable
           65    962: i.am_bsp_itm_string_print
           66    988: i.am_bsp_low_power_init
           67   1012: g_SPIpins
           68   1022: ../am_hal_cachectrl.c
           69   1044: i.am_hal_cachectrl_enable
           70   1070: ../am_hal_clkgen.c
           71   1089: i.am_hal_clkgen_osc_stop
           72   1114: i.am_hal_clkgen_sysclk_get
           73   1141: i.am_hal_clkgen_sysclk_select
           74   1171: ../am_hal_flash.c
           75   1189: i.am_hal_flash_delay
           76   1210: i.am_hal_flash_delay_status_change
           77   1245: ../am_hal_gpio.c
           78   1262: i.am_hal_gpio_int_clear
           79   1286: i.am_hal_gpio_int_enable
           80   1311: i.am_hal_gpio_int_register
           81   1338: i.am_hal_gpio_int_service
           82   1364: i.am_hal_gpio_int_status_get
           83   1393: ..\am_hal_interrupt.c
           84   1415: .emb_text
           85   1425: ../am_hal_interrupt.c
           86   1447: i.am_hal_interrupt_enable
           87   1473: ..\am_hal_iom.c
           88   1489: ../am_hal_iom.c
           89   1505: i.am_hal_iom_config
           90   1525: i.am_hal_iom_enable
           91   1545: i.am_hal_iom_fifo_read
           92   1568: i.am_hal_iom_fifo_write
           93   1592: i.am_hal_iom_i2c_cmd_run
           94   1617: i.am_hal_iom_i2c_read
           95   1639: i.am_hal_iom_i2c_read_nb
           96   1664: i.am_hal_iom_i2c_read_nq
           97   1689: i.am_hal_iom_i2c_write
           98   1712: i.am_hal_iom_i2c_write_nb
           99   1738: i.am_hal_iom_i2c_write_nq
          100   1764: i.am_hal_iom_pwrctrl_enable
          101   1792: i.am_hal_iom_sleeping_queue_flush
          102   1826: i.am_hal_iom_spi_read
          103   1848: i.am_hal_iom_spi_read_nb
          104   1873: i.am_hal_iom_spi_read_nq
          105   1898: i.am_hal_iom_spi_write
          106   1921: i.am_hal_iom_spi_write_nb
          107   1947: i.am_hal_iom_spi_write_nq
          108   1973: i.am_hal_iom_workaround_word_write
          109   2008: i.internal_iom_get_int_err
          110   2035: internal_iom_get_int_err
          111   2060: g_iom_error_status
          112   2079: ../am_hal_itm.c
          113   2095: i.am_hal_itm_enable
          114   2115: i.am_hal_itm_print
          115   2134: ../am_hal_sysctrl.c
          116   2154: i.am_hal_sysctrl_sleep
          117   2177: i.setBuckZX
          118   2189: setBuckZX
          119   2199: g_bBuckRestoreComplete
          120   2222: g_ui32BuckTimer
          121   2238: g_ui32BuckInputs
          122   2255: g_buckZX_chk
          123   2268: g_ui32SaveCoreBuckZX
          124   2289: g_ui32SaveMemBuckZX
          125   2309: g_ui32CoreBuck
          126   2324: ..\am_hal_ctimer.c
          127   2343: ../am_hal_ctimer.c
          128   2362: i.am_hal_ctimer_clear
          129   2384: i.am_hal_ctimer_period_set
          130   2411: i.am_hal_ctimer_start
          131   2433: ../am_hal_debug.c
          132   2451: i.am_hal_debug_error
          133   2472: ../am_hal_i2c_bit_bang.c
          134   2497: i.am_hal_i2c_bit_bang_receive
          135   2527: i.am_hal_i2c_bit_bang_send
          136   2554: i.i2c_pull_and_wait_scl_hi
          137   2581: i2c_pull_and_wait_scl_hi
          138   2606: i.i2c_send_byte
          139   2622: i2c_send_byte
          140   2636: am_hal_i2c_bit_bang_priv
          141   2661: ../am_hal_pwrctrl.c
          142   2681: i.am_hal_pwrctrl_bucks_disable
          143   2712: i.am_hal_pwrctrl_bucks_enable
          144   2742: i.am_hal_pwrctrl_bucks_init
          145   2770: i.am_hal_pwrctrl_low_power_init
          146   2802: i.am_hal_pwrctrl_memory_enable
          147   2833: i.am_hal_pwrctrl_periph_enable
          148   2864: ../am_hal_queue.c
          149   2882: i.am_hal_queue_item_add
          150   2906: ../am_hal_rtc.c
          151   2922: i.am_hal_rtc_osc_disable
          152   2947: i.am_hal_rtc_osc_select
          153   2971: ../am_hal_tpiu.c
          154   2988: i.am_hal_tpiu_enable
          155   3009: ../am_hal_uart.c
          156   3026: ../am_hal_vcomp.c
          157   3044: i.am_hal_vcomp_disable
          158   3067: dc.s
          159   3072: ../clib/longlong.s
          160   3091: ../clib/heapaux.c
          161   3109: ../clib/angel/startup.s
          162   3133: !!!main
          163   3141: ../fplib/d2f.s
          164   3156: x$fpl$d2f
          165   3166: ../clib/angel/kernel.s
          166   3189: .ARM.Collect$$rtentry$$00000000
          167   3221: ../fplib/dnaninf.s
          168   3240: x$fpl$dnaninf
          169   3254: ../fplib/fretinf.s
          170   3273: x$fpl$fretinf
          171   3287: ../fplib/usenofp.s
          172   3306: x$fpl$usenofp
          173   3320: .ARM.Collect$$rtentry$$00000002
          174   3352: .ARM.Collect$$rtentry$$00000009
          175   3384: .ARM.Collect$$rtentry$$0000000A
          176   3416: .ARM.Collect$$rtentry$$0000000C
          177   3448: .ARM.Collect$$rtentry$$0000000D
          178   3480: .ARM.Collect$$rtentry$$00000004
          179   3512: ../clib/angel/sys.s
          180   3532: ../clib/stdlib.c
          181   3549: ../clib/angel/boardlib.s
          182   3574: ../clib/libinit.s
          183   3592: .ARM.Collect$$libinit$$00000000
          184   3624: .ARM.Collect$$rtexit$$00000000
          185   3655: .ARM.Collect$$libinit$$00000001
          186   3687: .ARM.Collect$$libinit$$00000004
          187   3719: .ARM.Collect$$libinit$$0000000A
          188   3751: .ARM.Collect$$libinit$$0000000C
          189   3783: .ARM.Collect$$libinit$$0000000E
          190   3815: .ARM.Collect$$libinit$$00000011
          191   3847: .ARM.Collect$$libinit$$00000013
          192   3879: .ARM.Collect$$libinit$$00000015
          193   3911: .ARM.Collect$$libinit$$00000017
          194   3943: .ARM.Collect$$libinit$$00000019
          195   3975: .ARM.Collect$$libinit$$0000001B
          196   4007: .ARM.Collect$$libinit$$0000001D
          197   4039: .ARM.Collect$$libinit$$0000001F
          198   4071: .ARM.Collect$$libinit$$00000021
          199   4103: .ARM.Collect$$libinit$$00000023
          200   4135: .ARM.Collect$$libinit$$00000025
          201   4167: .ARM.Collect$$libinit$$0000002C
          202   4199: .ARM.Collect$$libinit$$0000002E
          203   4231: .ARM.Collect$$libinit$$00000030
          204   4263: .ARM.Collect$$libinit$$00000032
          205   4295: .ARM.Collect$$libinit$$00000033
          206   4327: .ARM.Collect$$rtexit$$00000002
          207   4358: .ARM.Collect$$rtexit$$00000003
          208   4389: .ARM.Collect$$rtexit$$00000004
          209   4420: ../clib/armsys.c
          210   4437: ../fplib/fpinit.s
          211   4455: x$fpl$fpinit
          212   4468: ../clib/angel/sysapp.c
          213   4491: .ARM.Collect$$libshutdown$$00000000
          214   4527: ../clib/heapalloc.c
          215   4547: ../clib/signal.c
          216   4564: .ARM.Collect$$libshutdown$$00000002
          217   4600: .ARM.Collect$$libshutdown$$00000004
          218   4636: .ARM.Collect$$libshutdown$$00000007
          219   4672: .ARM.Collect$$libshutdown$$0000000A
          220   4708: .ARM.Collect$$libshutdown$$0000000C
          221   4744: .ARM.Collect$$libshutdown$$0000000F
          222   4780: .ARM.Collect$$libshutdown$$00000010
          223   4816: ../clib/angel/rt.s
          224   4835: ../clib/signal.s
          225   4852: ../clib/angel/scatter.s
          226   4876: !!!scatter
          227   4887: ../clib/angel/handlers.s
          228   4912: !!handler_copy
          229   4927: !!handler_zi
          230   4940: BuildAttributes$$THM_ISAv4$E$P$D$K$B$S$7EM$VFPi3$EXTD16$VFPS$VFMA$PE$A:L22UL41UL21$X:L11$S22US41US21$IEEE1$IW$USESV6$~STKCKD$USESV7$~SHL$OTIME$ROPI$EBA8$UX$STANDARDLIB$REQ8$EABIv2
          231   5120: __ARM_use_no_argv
          232   5138: __Vectors
          233   5148: Reset_Handler
          234   5162: am_nmi_isr
          235   5173: am_fault_isr
          236   5186: am_memmanage_isr
          237   5203: am_adc_isr
          238   5214: am_brownout_isr
          239   5230: am_clkgen_isr
          240   5244: am_ctimer_isr
          241   5258: am_debugmon_isr
          242   5274: am_flash_isr
          243   5287: am_iomaster0_isr
          244   5304: am_iomaster1_isr
          245   5321: am_iomaster2_isr
          246   5338: am_iomaster3_isr
          247   5355: am_iomaster4_isr
          248   5372: am_iomaster5_isr
          249   5389: am_ioslave_acc_isr
          250   5408: am_ioslave_ios_isr
          251   5427: am_pdm_isr
          252   5438: am_pendsv_isr
          253   5452: am_software0_isr
          254   5469: am_software1_isr
          255   5486: am_software2_isr
          256   5503: am_software3_isr
          257   5520: am_stimer_cmpr0_isr
          258   5540: am_stimer_cmpr1_isr
          259   5560: am_stimer_cmpr2_isr
          260   5580: am_stimer_cmpr3_isr
          261   5600: am_stimer_cmpr4_isr
          262   5620: am_stimer_cmpr5_isr
          263   5640: am_stimer_cmpr6_isr
          264   5660: am_stimer_cmpr7_isr
          265   5680: am_stimer_isr
          266   5694: am_svcall_isr
          267   5708: am_systick_isr
          268   5723: am_uart0_isr
          269   5736: am_uart1_isr
          270   5749: am_uart_isr
          271   5761: am_vcomp_isr
          272   5774: am_watchdog_isr
          273   5790: __main
          274   5797: __scatterload
          275   5811: __scatterload_rt2
          276   5829: __scatterload_rt2_thumb_only
          277   5858: __scatterload_null
          278   5877: __scatterload_copy
          279   5896: __scatterload_zeroinit
          280   5919: __rt_lib_init
          281   5933: __rt_lib_init_fp_1
          282   5952: __rt_lib_init_alloca_1
          283   5975: __rt_lib_init_argv_1
          284   5996: __rt_lib_init_atexit_1
          285   6019: __rt_lib_init_clock_1
          286   6041: __rt_lib_init_cpp_1
          287   6061: __rt_lib_init_exceptions_1
          288   6088: __rt_lib_init_fp_trap_1
          289   6112: __rt_lib_init_getenv_1
          290   6135: __rt_lib_init_heap_1
          291   6156: __rt_lib_init_lc_collate_1
          292   6183: __rt_lib_init_lc_ctype_1
          293   6208: __rt_lib_init_lc_monetary_1
          294   6236: __rt_lib_init_lc_numeric_1
          295   6263: __rt_lib_init_lc_time_1
          296   6287: __rt_lib_init_preinit_1
          297   6311: __rt_lib_init_rand_1
          298   6332: __rt_lib_init_return
          299   6353: __rt_lib_init_signal_1
          300   6376: __rt_lib_init_stdio_1
          301   6398: __rt_lib_init_user_alloc_1
          302   6425: __rt_lib_shutdown
          303   6443: __rt_lib_shutdown_cpp_1
          304   6467: __rt_lib_shutdown_fp_trap_1
          305   6495: __rt_lib_shutdown_heap_1
          306   6520: __rt_lib_shutdown_return
          307   6545: __rt_lib_shutdown_signal_1
          308   6572: __rt_lib_shutdown_stdio_1
          309   6598: __rt_lib_shutdown_user_alloc_1
          310   6629: __rt_entry
          311   6640: __rt_entry_presh_1
          312   6659: __rt_entry_sh
          313   6673: __rt_entry_li
          314   6687: __rt_entry_postsh_1
          315   6707: __rt_entry_main
          316   6723: __rt_entry_postli_1
          317   6743: __rt_exit
          318   6753: __rt_exit_ls
          319   6766: __rt_exit_prels_1
          320   6784: __rt_exit_exit
          321   6799: am_hal_interrupt_master_enable
          322   6830: am_hal_interrupt_master_disable
          323   6862: am_hal_interrupt_master_set
          324   6890: __asm___12_am_hal_iom_c_97762dd2__iom_workaround_loop
          325   6944: __user_initial_stackheap
          326   6969: __use_two_region_memory
          327   6993: __rt_heap_escrow$2region
          328   7018: __rt_heap_expand$2region
          329   7043: __user_setup_stackheap
          330   7066: exit
          331   7071: __user_libspace
          332   7087: __user_perproc_libspace
          333   7111: __user_perthread_libspace
          334   7137: _sys_exit
          335   7147: __I$use$semihosting
          336   7167: __use_no_semihosting_swi
          337   7192: __semihosting_library_function
          338   7223: am_bsp_debug_printf_enable
          339   7250: am_bsp_iom_enable
          340   7268: am_bsp_iom_spi_pins_enable
          341   7295: am_bsp_itm_string_print
          342   7319: am_bsp_low_power_init
          343   7341: am_gpio_isr
          344   7353: am_hal_cachectrl_enable
          345   7377: am_hal_clkgen_osc_stop
          346   7400: am_hal_clkgen_sysclk_get
          347   7425: am_hal_clkgen_sysclk_select
          348   7453: am_hal_ctimer_clear
          349   7473: am_hal_ctimer_period_set
          350   7498: am_hal_ctimer_start
          351   7518: am_hal_debug_error
          352   7537: am_hal_flash_delay
          353   7556: am_hal_flash_delay_status_change
          354   7589: am_hal_gpio_int_clear
          355   7611: am_hal_gpio_int_enable
          356   7634: am_hal_gpio_int_register
          357   7659: am_hal_gpio_int_service
          358   7683: am_hal_gpio_int_status_get
          359   7710: am_hal_i2c_bit_bang_receive
          360   7738: am_hal_i2c_bit_bang_send
          361   7763: am_hal_interrupt_enable
          362   7787: am_hal_iom_config
          363   7805: am_hal_iom_enable
          364   7823: am_hal_iom_fifo_read
          365   7844: am_hal_iom_fifo_write
          366   7866: am_hal_iom_i2c_cmd_run
          367   7889: am_hal_iom_i2c_read
          368   7909: am_hal_iom_i2c_read_nb
          369   7932: am_hal_iom_i2c_read_nq
          370   7955: am_hal_iom_i2c_write
          371   7976: am_hal_iom_i2c_write_nb
          372   8000: am_hal_iom_i2c_write_nq
          373   8024: am_hal_iom_pwrctrl_enable
          374   8050: am_hal_iom_sleeping_queue_flush
          375   8082: am_hal_iom_spi_read
          376   8102: am_hal_iom_spi_read_nb
          377   8125: am_hal_iom_spi_read_nq
          378   8148: am_hal_iom_spi_write
          379   8169: am_hal_iom_spi_write_nb
          380   8193: am_hal_iom_spi_write_nq
          381   8217: am_hal_iom_workaround_word_write
          382   8250: am_hal_itm_enable
          383   8268: am_hal_itm_print
          384   8285: am_hal_pwrctrl_bucks_disable
          385   8314: am_hal_pwrctrl_bucks_enable
          386   8342: am_hal_pwrctrl_bucks_init
          387   8368: am_hal_pwrctrl_low_power_init
          388   8398: am_hal_pwrctrl_memory_enable
          389   8427: am_hal_pwrctrl_periph_enable
          390   8456: am_hal_queue_item_add
          391   8478: am_hal_rtc_osc_disable
          392   8501: am_hal_rtc_osc_select
          393   8523: am_hal_sysctrl_sleep
          394   8544: am_hal_tpiu_enable
          395   8563: am_hal_vcomp_disable
          396   8584: am_util_stdio_printf
          397   8605: am_util_stdio_printf_init
          398   8631: am_util_stdio_terminal_clear
          399   8660: am_util_stdio_vsprintf
          400   8683: clear_rx_buf
          401   8696: i2c_pins_enable
          402   8712: iom_slave_read
          403   8727: iom_slave_write
          404   8743: itm_start
          405   8753: main
          406   8758: update_progress
          407   8774: validate_rx_buf
          408   8790: __aeabi_d2f
          409   8802: _d2f
          410   8807: __fpl_dnaninf
          411   8821: _fp_init
          412   8830: __fplib_config_fpu_vfp
          413   8853: __fplib_config_pureend_doubles
          414   8884: __fpl_fretinf
          415   8898: __I$use$fp
          416   8909: am_hal_cachectrl_defaults
          417   8935: i2c_bb_errmap
          418   8949: g_IOMPads
          419   8959: g_I2CPads
          420   8969: Region$$Table$$Base
          421   8989: Region$$Table$$Limit
          422   9010: g_startIdx
          423   9021: bIosInt
          424   9029: g_ui32LastUpdate
          425   9046: g_pfnCharPrint
          426   9061: g_ui32HALflags
          427   9076: g_am_hal_flash
          428   9091: am_hal_iom_queue_flush
          429   9114: g_bIomBusy
          430   9125: g_pui8RcvBuf
          431   9138: am_hal_gpio_ppfnHandlers
          432   9163: g_psIOMBuffers
          433   9178: ui32StatusTimeout
          434   9196: g_psIOMQueue
          435   9209: am_hal_iom_pwrsave
          436   9228: __libspace_start
          437   9245: __temporary_stack_top$libspace


** Section #13 '.note' (SHT_NOTE)
    Size   : 28 bytes (alignment 4)


** Section #14 '.comment' (SHT_PROGBITS)
    Size   : 15072 bytes


** Section #15 '.shstrtab' (SHT_STRTAB)
    Size   : 148 bytes

            #  Offset String
        ====================================

            1      1: FLASH
            2      7: SRAM
            3     12: .debug_abbrev
            4     26: .debug_frame
            5     39: .debug_info
            6     51: .debug_line
            7     63: .debug_loc
            8     74: .debug_macinfo
            9     89: .debug_pubnames
           10    105: .symtab
           11    113: .strtab
           12    121: .note
           13    127: .comment
           14    136: .shstrtab
           15    146: 
           16    147: 


